
build/main.axf:     file format elf32-littlearm

Contents of the .debug_info section:

  Compilation Unit @ offset 0x0:
   Length:        0x111 (32-bit)
   Version:       4
   Abbrev Offset: 0x0
   Pointer Size:  4
 <0><b>: Abbrev Number: 1 (DW_TAG_compile_unit)
    <c>   DW_AT_producer    : (indirect string, offset: 0x9d): GNU C99 9.3.1 20200408 (release) -mthumb -mcpu=cortex-m4 -mfpu=fpv4-sp-d16 -mfloat-abi=softfp -march=armv7e-m+fp -g -Os -O0 -std=c99 -ffunction-sections -fdata-sections
    <10>   DW_AT_language    : 12	(ANSI C99)
    <11>   DW_AT_name        : (indirect string, offset: 0x152): gpio.c
    <15>   DW_AT_comp_dir    : (indirect string, offset: 0x159): /home/balder/Documents/uni/lectures/Semester 4/semesterproj/microcontroller
    <19>   DW_AT_ranges      : 0x0
    <1d>   DW_AT_low_pc      : 0x0
    <21>   DW_AT_stmt_list   : 0x0
 <1><25>: Abbrev Number: 2 (DW_TAG_enumeration_type)
    <26>   DW_AT_name        : (indirect string, offset: 0x149): LEDColor
    <2a>   DW_AT_encoding    : 7	(unsigned)
    <2b>   DW_AT_byte_size   : 1
    <2c>   DW_AT_type        : <0x68>
    <30>   DW_AT_decl_file   : 4
    <31>   DW_AT_decl_line   : 2
    <32>   DW_AT_decl_column : 6
    <33>   DW_AT_sibling     : <0x68>
 <2><37>: Abbrev Number: 3 (DW_TAG_enumerator)
    <38>   DW_AT_name        : OFF
    <3c>   DW_AT_const_value : 0
 <2><3d>: Abbrev Number: 4 (DW_TAG_enumerator)
    <3e>   DW_AT_name        : (indirect string, offset: 0x6c): GREEN
    <42>   DW_AT_const_value : 4
 <2><43>: Abbrev Number: 4 (DW_TAG_enumerator)
    <44>   DW_AT_name        : (indirect string, offset: 0x1e): BLUE
    <48>   DW_AT_const_value : 2
 <2><49>: Abbrev Number: 4 (DW_TAG_enumerator)
    <4a>   DW_AT_name        : (indirect string, offset: 0x4f): CYAN
    <4e>   DW_AT_const_value : 6
 <2><4f>: Abbrev Number: 3 (DW_TAG_enumerator)
    <50>   DW_AT_name        : RED
    <54>   DW_AT_const_value : 1
 <2><55>: Abbrev Number: 4 (DW_TAG_enumerator)
    <56>   DW_AT_name        : (indirect string, offset: 0x1a5): YELLOW
    <5a>   DW_AT_const_value : 5
 <2><5b>: Abbrev Number: 4 (DW_TAG_enumerator)
    <5c>   DW_AT_name        : (indirect string, offset: 0x54): MAGENTA
    <60>   DW_AT_const_value : 3
 <2><61>: Abbrev Number: 4 (DW_TAG_enumerator)
    <62>   DW_AT_name        : (indirect string, offset: 0x72): WHITE
    <66>   DW_AT_const_value : 7
 <2><67>: Abbrev Number: 0
 <1><68>: Abbrev Number: 5 (DW_TAG_base_type)
    <69>   DW_AT_byte_size   : 1
    <6a>   DW_AT_encoding    : 8	(unsigned char)
    <6b>   DW_AT_name        : (indirect string, offset: 0x23): unsigned char
 <1><6f>: Abbrev Number: 5 (DW_TAG_base_type)
    <70>   DW_AT_byte_size   : 1
    <71>   DW_AT_encoding    : 6	(signed char)
    <72>   DW_AT_name        : (indirect string, offset: 0x25): signed char
 <1><76>: Abbrev Number: 5 (DW_TAG_base_type)
    <77>   DW_AT_byte_size   : 2
    <78>   DW_AT_encoding    : 5	(signed)
    <79>   DW_AT_name        : (indirect string, offset: 0x5c): short int
 <1><7d>: Abbrev Number: 5 (DW_TAG_base_type)
    <7e>   DW_AT_byte_size   : 2
    <7f>   DW_AT_encoding    : 7	(unsigned)
    <80>   DW_AT_name        : (indirect string, offset: 0x31): short unsigned int
 <1><84>: Abbrev Number: 5 (DW_TAG_base_type)
    <85>   DW_AT_byte_size   : 4
    <86>   DW_AT_encoding    : 5	(signed)
    <87>   DW_AT_name        : (indirect string, offset: 0x94): long int
 <1><8b>: Abbrev Number: 6 (DW_TAG_typedef)
    <8c>   DW_AT_name        : (indirect string, offset: 0x44): __uint32_t
    <90>   DW_AT_decl_file   : 2
    <91>   DW_AT_decl_line   : 79
    <92>   DW_AT_decl_column : 25
    <93>   DW_AT_type        : <0x97>
 <1><97>: Abbrev Number: 5 (DW_TAG_base_type)
    <98>   DW_AT_byte_size   : 4
    <99>   DW_AT_encoding    : 7	(unsigned)
    <9a>   DW_AT_name        : (indirect string, offset: 0x7d): long unsigned int
 <1><9e>: Abbrev Number: 5 (DW_TAG_base_type)
    <9f>   DW_AT_byte_size   : 8
    <a0>   DW_AT_encoding    : 5	(signed)
    <a1>   DW_AT_name        : (indirect string, offset: 0x8f): long long int
 <1><a5>: Abbrev Number: 5 (DW_TAG_base_type)
    <a6>   DW_AT_byte_size   : 8
    <a7>   DW_AT_encoding    : 7	(unsigned)
    <a8>   DW_AT_name        : (indirect string, offset: 0x78): long long unsigned int
 <1><ac>: Abbrev Number: 7 (DW_TAG_base_type)
    <ad>   DW_AT_byte_size   : 4
    <ae>   DW_AT_encoding    : 5	(signed)
    <af>   DW_AT_name        : int
 <1><b3>: Abbrev Number: 5 (DW_TAG_base_type)
    <b4>   DW_AT_byte_size   : 4
    <b5>   DW_AT_encoding    : 7	(unsigned)
    <b6>   DW_AT_name        : (indirect string, offset: 0x82): unsigned int
 <1><ba>: Abbrev Number: 6 (DW_TAG_typedef)
    <bb>   DW_AT_name        : (indirect string, offset: 0x46): uint32_t
    <bf>   DW_AT_decl_file   : 3
    <c0>   DW_AT_decl_line   : 48
    <c1>   DW_AT_decl_column : 20
    <c2>   DW_AT_type        : <0x8b>
 <1><c6>: Abbrev Number: 8 (DW_TAG_subprogram)
    <c7>   DW_AT_external    : 1
    <c7>   DW_AT_name        : (indirect string, offset: 0xb): button_sw1_pressed
    <cb>   DW_AT_decl_file   : 1
    <cc>   DW_AT_decl_line   : 26
    <cd>   DW_AT_decl_column : 5
    <ce>   DW_AT_type        : <0xac>
    <d2>   DW_AT_low_pc      : 0x0
    <d6>   DW_AT_high_pc     : 0x1c
    <da>   DW_AT_frame_base  : 1 byte block: 9c 	(DW_OP_call_frame_cfa)
    <dc>   DW_AT_GNU_all_call_sites: 1
 <1><dc>: Abbrev Number: 9 (DW_TAG_subprogram)
    <dd>   DW_AT_external    : 1
    <dd>   DW_AT_name        : (indirect string, offset: 0x146): setLEDColor
    <e1>   DW_AT_decl_file   : 1
    <e2>   DW_AT_decl_line   : 24
    <e3>   DW_AT_decl_column : 6
    <e4>   DW_AT_prototyped  : 1
    <e4>   DW_AT_low_pc      : 0x2fc
    <e8>   DW_AT_high_pc     : 0x24
    <ec>   DW_AT_frame_base  : 1 byte block: 9c 	(DW_OP_call_frame_cfa)
    <ee>   DW_AT_GNU_all_call_sites: 1
    <ee>   DW_AT_sibling     : <0x102>
 <2><f2>: Abbrev Number: 10 (DW_TAG_formal_parameter)
    <f3>   DW_AT_name        : (indirect string, offset: 0x66): color
    <f7>   DW_AT_decl_file   : 1
    <f8>   DW_AT_decl_line   : 24
    <f9>   DW_AT_decl_column : 32
    <fa>   DW_AT_type        : <0x25>
    <fe>   DW_AT_location    : 2 byte block: 91 77 	(DW_OP_fbreg: -9)
 <2><101>: Abbrev Number: 0
 <1><102>: Abbrev Number: 11 (DW_TAG_subprogram)
    <103>   DW_AT_external    : 1
    <103>   DW_AT_name        : (indirect string, offset: 0x0): setupPortF
    <107>   DW_AT_decl_file   : 1
    <108>   DW_AT_decl_line   : 4
    <109>   DW_AT_decl_column : 6
    <10a>   DW_AT_low_pc      : 0x26c
    <10e>   DW_AT_high_pc     : 0x90
    <112>   DW_AT_frame_base  : 1 byte block: 9c 	(DW_OP_call_frame_cfa)
    <114>   DW_AT_GNU_all_call_sites: 1
 <1><114>: Abbrev Number: 0
  Compilation Unit @ offset 0x115:
   Length:        0x12e (32-bit)
   Version:       4
   Abbrev Offset: 0xbf
   Pointer Size:  4
 <0><120>: Abbrev Number: 1 (DW_TAG_compile_unit)
    <121>   DW_AT_producer    : (indirect string, offset: 0x9d): GNU C99 9.3.1 20200408 (release) -mthumb -mcpu=cortex-m4 -mfpu=fpv4-sp-d16 -mfloat-abi=softfp -march=armv7e-m+fp -g -Os -O0 -std=c99 -ffunction-sections -fdata-sections
    <125>   DW_AT_language    : 12	(ANSI C99)
    <126>   DW_AT_name        : (indirect string, offset: 0x1e1): main.c
    <12a>   DW_AT_comp_dir    : (indirect string, offset: 0x159): /home/balder/Documents/uni/lectures/Semester 4/semesterproj/microcontroller
    <12e>   DW_AT_ranges      : 0x20
    <132>   DW_AT_low_pc      : 0x0
    <136>   DW_AT_stmt_list   : 0x198
 <1><13a>: Abbrev Number: 2 (DW_TAG_base_type)
    <13b>   DW_AT_byte_size   : 1
    <13c>   DW_AT_encoding    : 8	(unsigned char)
    <13d>   DW_AT_name        : (indirect string, offset: 0x23): unsigned char
 <1><141>: Abbrev Number: 2 (DW_TAG_base_type)
    <142>   DW_AT_byte_size   : 1
    <143>   DW_AT_encoding    : 6	(signed char)
    <144>   DW_AT_name        : (indirect string, offset: 0x25): signed char
 <1><148>: Abbrev Number: 3 (DW_TAG_typedef)
    <149>   DW_AT_name        : (indirect string, offset: 0x1c8): INT16U
    <14d>   DW_AT_decl_file   : 2
    <14e>   DW_AT_decl_line   : 24
    <14f>   DW_AT_decl_column : 24
    <150>   DW_AT_type        : <0x159>
 <1><154>: Abbrev Number: 4 (DW_TAG_volatile_type)
    <155>   DW_AT_type        : <0x148>
 <1><159>: Abbrev Number: 2 (DW_TAG_base_type)
    <15a>   DW_AT_byte_size   : 2
    <15b>   DW_AT_encoding    : 7	(unsigned)
    <15c>   DW_AT_name        : (indirect string, offset: 0x31): short unsigned int
 <1><160>: Abbrev Number: 2 (DW_TAG_base_type)
    <161>   DW_AT_byte_size   : 2
    <162>   DW_AT_encoding    : 5	(signed)
    <163>   DW_AT_name        : (indirect string, offset: 0x5c): short int
 <1><167>: Abbrev Number: 2 (DW_TAG_base_type)
    <168>   DW_AT_byte_size   : 4
    <169>   DW_AT_encoding    : 7	(unsigned)
    <16a>   DW_AT_name        : (indirect string, offset: 0x7d): long unsigned int
 <1><16e>: Abbrev Number: 2 (DW_TAG_base_type)
    <16f>   DW_AT_byte_size   : 4
    <170>   DW_AT_encoding    : 5	(signed)
    <171>   DW_AT_name        : (indirect string, offset: 0x94): long int
 <1><175>: Abbrev Number: 2 (DW_TAG_base_type)
    <176>   DW_AT_byte_size   : 8
    <177>   DW_AT_encoding    : 7	(unsigned)
    <178>   DW_AT_name        : (indirect string, offset: 0x78): long long unsigned int
 <1><17c>: Abbrev Number: 2 (DW_TAG_base_type)
    <17d>   DW_AT_byte_size   : 8
    <17e>   DW_AT_encoding    : 5	(signed)
    <17f>   DW_AT_name        : (indirect string, offset: 0x8f): long long int
 <1><183>: Abbrev Number: 2 (DW_TAG_base_type)
    <184>   DW_AT_byte_size   : 4
    <185>   DW_AT_encoding    : 4	(float)
    <186>   DW_AT_name        : (indirect string, offset: 0x1cf): float
 <1><18a>: Abbrev Number: 2 (DW_TAG_base_type)
    <18b>   DW_AT_byte_size   : 8
    <18c>   DW_AT_encoding    : 4	(float)
    <18d>   DW_AT_name        : (indirect string, offset: 0x1d5): double
 <1><191>: Abbrev Number: 5 (DW_TAG_enumeration_type)
    <192>   DW_AT_name        : (indirect string, offset: 0x149): LEDColor
    <196>   DW_AT_encoding    : 7	(unsigned)
    <197>   DW_AT_byte_size   : 1
    <198>   DW_AT_type        : <0x13a>
    <19c>   DW_AT_decl_file   : 5
    <19d>   DW_AT_decl_line   : 2
    <19e>   DW_AT_decl_column : 6
    <19f>   DW_AT_sibling     : <0x1d4>
 <2><1a3>: Abbrev Number: 6 (DW_TAG_enumerator)
    <1a4>   DW_AT_name        : OFF
    <1a8>   DW_AT_const_value : 0
 <2><1a9>: Abbrev Number: 7 (DW_TAG_enumerator)
    <1aa>   DW_AT_name        : (indirect string, offset: 0x6c): GREEN
    <1ae>   DW_AT_const_value : 4
 <2><1af>: Abbrev Number: 7 (DW_TAG_enumerator)
    <1b0>   DW_AT_name        : (indirect string, offset: 0x1e): BLUE
    <1b4>   DW_AT_const_value : 2
 <2><1b5>: Abbrev Number: 7 (DW_TAG_enumerator)
    <1b6>   DW_AT_name        : (indirect string, offset: 0x4f): CYAN
    <1ba>   DW_AT_const_value : 6
 <2><1bb>: Abbrev Number: 6 (DW_TAG_enumerator)
    <1bc>   DW_AT_name        : RED
    <1c0>   DW_AT_const_value : 1
 <2><1c1>: Abbrev Number: 7 (DW_TAG_enumerator)
    <1c2>   DW_AT_name        : (indirect string, offset: 0x1a5): YELLOW
    <1c6>   DW_AT_const_value : 5
 <2><1c7>: Abbrev Number: 7 (DW_TAG_enumerator)
    <1c8>   DW_AT_name        : (indirect string, offset: 0x54): MAGENTA
    <1cc>   DW_AT_const_value : 3
 <2><1cd>: Abbrev Number: 7 (DW_TAG_enumerator)
    <1ce>   DW_AT_name        : (indirect string, offset: 0x72): WHITE
    <1d2>   DW_AT_const_value : 7
 <2><1d3>: Abbrev Number: 0
 <1><1d4>: Abbrev Number: 3 (DW_TAG_typedef)
    <1d5>   DW_AT_name        : (indirect string, offset: 0x44): __uint32_t
    <1d9>   DW_AT_decl_file   : 3
    <1da>   DW_AT_decl_line   : 79
    <1db>   DW_AT_decl_column : 25
    <1dc>   DW_AT_type        : <0x167>
 <1><1e0>: Abbrev Number: 8 (DW_TAG_base_type)
    <1e1>   DW_AT_byte_size   : 4
    <1e2>   DW_AT_encoding    : 5	(signed)
    <1e3>   DW_AT_name        : int
 <1><1e7>: Abbrev Number: 2 (DW_TAG_base_type)
    <1e8>   DW_AT_byte_size   : 4
    <1e9>   DW_AT_encoding    : 7	(unsigned)
    <1ea>   DW_AT_name        : (indirect string, offset: 0x82): unsigned int
 <1><1ee>: Abbrev Number: 3 (DW_TAG_typedef)
    <1ef>   DW_AT_name        : (indirect string, offset: 0x46): uint32_t
    <1f3>   DW_AT_decl_file   : 4
    <1f4>   DW_AT_decl_line   : 48
    <1f5>   DW_AT_decl_column : 20
    <1f6>   DW_AT_type        : <0x1d4>
 <1><1fa>: Abbrev Number: 9 (DW_TAG_variable)
    <1fb>   DW_AT_name        : (indirect string, offset: 0x1ac): ticks
    <1ff>   DW_AT_decl_file   : 1
    <200>   DW_AT_decl_line   : 11
    <201>   DW_AT_decl_column : 17
    <202>   DW_AT_type        : <0x154>
    <206>   DW_AT_external    : 1
    <206>   DW_AT_location    : 5 byte block: 3 0 1 0 20 	(DW_OP_addr: 20000100)
 <1><20c>: Abbrev Number: 10 (DW_TAG_subprogram)
    <20d>   DW_AT_external    : 1
    <20d>   DW_AT_name        : (indirect string, offset: 0x1dc): main
    <211>   DW_AT_decl_file   : 1
    <212>   DW_AT_decl_line   : 43
    <213>   DW_AT_decl_column : 5
    <214>   DW_AT_prototyped  : 1
    <214>   DW_AT_type        : <0x1e0>
    <218>   DW_AT_low_pc      : 0x3b4
    <21c>   DW_AT_high_pc     : 0x58
    <220>   DW_AT_frame_base  : 1 byte block: 9c 	(DW_OP_call_frame_cfa)
    <222>   DW_AT_GNU_all_tail_call_sites: 1
 <1><222>: Abbrev Number: 11 (DW_TAG_subprogram)
    <223>   DW_AT_external    : 1
    <223>   DW_AT_name        : (indirect string, offset: 0x1b2): setup
    <227>   DW_AT_decl_file   : 1
    <228>   DW_AT_decl_line   : 19
    <229>   DW_AT_decl_column : 6
    <22a>   DW_AT_low_pc      : 0x34c
    <22e>   DW_AT_high_pc     : 0x68
    <232>   DW_AT_frame_base  : 1 byte block: 9c 	(DW_OP_call_frame_cfa)
    <234>   DW_AT_GNU_all_tail_call_sites: 1
 <1><234>: Abbrev Number: 12 (DW_TAG_subprogram)
    <235>   DW_AT_external    : 1
    <235>   DW_AT_name        : (indirect string, offset: 0x1b8): SysTick_Handler
    <239>   DW_AT_decl_file   : 1
    <23a>   DW_AT_decl_line   : 13
    <23b>   DW_AT_decl_column : 6
    <23c>   DW_AT_low_pc      : 0x320
    <240>   DW_AT_high_pc     : 0x2c
    <244>   DW_AT_frame_base  : 1 byte block: 9c 	(DW_OP_call_frame_cfa)
    <246>   DW_AT_GNU_all_call_sites: 1
 <1><246>: Abbrev Number: 0
  Compilation Unit @ offset 0x247:
   Length:        0x193 (32-bit)
   Version:       4
   Abbrev Offset: 0x185
   Pointer Size:  4
 <0><252>: Abbrev Number: 1 (DW_TAG_compile_unit)
    <253>   DW_AT_producer    : (indirect string, offset: 0x9d): GNU C99 9.3.1 20200408 (release) -mthumb -mcpu=cortex-m4 -mfpu=fpv4-sp-d16 -mfloat-abi=softfp -march=armv7e-m+fp -g -Os -O0 -std=c99 -ffunction-sections -fdata-sections
    <257>   DW_AT_language    : 12	(ANSI C99)
    <258>   DW_AT_name        : (indirect string, offset: 0x23c): startup_gcc.c
    <25c>   DW_AT_comp_dir    : (indirect string, offset: 0x159): /home/balder/Documents/uni/lectures/Semester 4/semesterproj/microcontroller
    <260>   DW_AT_ranges      : 0x40
    <264>   DW_AT_low_pc      : 0x0
    <268>   DW_AT_stmt_list   : 0x34f
 <1><26c>: Abbrev Number: 2 (DW_TAG_base_type)
    <26d>   DW_AT_byte_size   : 1
    <26e>   DW_AT_encoding    : 6	(signed char)
    <26f>   DW_AT_name        : (indirect string, offset: 0x25): signed char
 <1><273>: Abbrev Number: 2 (DW_TAG_base_type)
    <274>   DW_AT_byte_size   : 1
    <275>   DW_AT_encoding    : 8	(unsigned char)
    <276>   DW_AT_name        : (indirect string, offset: 0x23): unsigned char
 <1><27a>: Abbrev Number: 2 (DW_TAG_base_type)
    <27b>   DW_AT_byte_size   : 2
    <27c>   DW_AT_encoding    : 5	(signed)
    <27d>   DW_AT_name        : (indirect string, offset: 0x5c): short int
 <1><281>: Abbrev Number: 2 (DW_TAG_base_type)
    <282>   DW_AT_byte_size   : 2
    <283>   DW_AT_encoding    : 7	(unsigned)
    <284>   DW_AT_name        : (indirect string, offset: 0x31): short unsigned int
 <1><288>: Abbrev Number: 2 (DW_TAG_base_type)
    <289>   DW_AT_byte_size   : 4
    <28a>   DW_AT_encoding    : 5	(signed)
    <28b>   DW_AT_name        : (indirect string, offset: 0x94): long int
 <1><28f>: Abbrev Number: 2 (DW_TAG_base_type)
    <290>   DW_AT_byte_size   : 4
    <291>   DW_AT_encoding    : 7	(unsigned)
    <292>   DW_AT_name        : (indirect string, offset: 0x7d): long unsigned int
 <1><296>: Abbrev Number: 2 (DW_TAG_base_type)
    <297>   DW_AT_byte_size   : 8
    <298>   DW_AT_encoding    : 5	(signed)
    <299>   DW_AT_name        : (indirect string, offset: 0x8f): long long int
 <1><29d>: Abbrev Number: 2 (DW_TAG_base_type)
    <29e>   DW_AT_byte_size   : 8
    <29f>   DW_AT_encoding    : 7	(unsigned)
    <2a0>   DW_AT_name        : (indirect string, offset: 0x78): long long unsigned int
 <1><2a4>: Abbrev Number: 3 (DW_TAG_base_type)
    <2a5>   DW_AT_byte_size   : 4
    <2a6>   DW_AT_encoding    : 5	(signed)
    <2a7>   DW_AT_name        : int
 <1><2ab>: Abbrev Number: 2 (DW_TAG_base_type)
    <2ac>   DW_AT_byte_size   : 4
    <2ad>   DW_AT_encoding    : 7	(unsigned)
    <2ae>   DW_AT_name        : (indirect string, offset: 0x82): unsigned int
 <1><2b2>: Abbrev Number: 4 (DW_TAG_array_type)
    <2b3>   DW_AT_type        : <0x28f>
    <2b7>   DW_AT_sibling     : <0x2c2>
 <2><2bb>: Abbrev Number: 5 (DW_TAG_subrange_type)
    <2bc>   DW_AT_type        : <0x2ab>
    <2c0>   DW_AT_upper_bound : 63
 <2><2c1>: Abbrev Number: 0
 <1><2c2>: Abbrev Number: 6 (DW_TAG_variable)
    <2c3>   DW_AT_name        : (indirect string, offset: 0x1f3): pulStack
    <2c7>   DW_AT_decl_file   : 1
    <2c8>   DW_AT_decl_line   : 37
    <2c9>   DW_AT_decl_column : 22
    <2ca>   DW_AT_type        : <0x2b2>
    <2ce>   DW_AT_location    : 5 byte block: 3 0 0 0 20 	(DW_OP_addr: 20000000)
 <1><2d4>: Abbrev Number: 4 (DW_TAG_array_type)
    <2d5>   DW_AT_type        : <0x2ef>
    <2d9>   DW_AT_sibling     : <0x2e4>
 <2><2dd>: Abbrev Number: 5 (DW_TAG_subrange_type)
    <2de>   DW_AT_type        : <0x2ab>
    <2e2>   DW_AT_upper_bound : 154
 <2><2e3>: Abbrev Number: 0
 <1><2e4>: Abbrev Number: 7 (DW_TAG_const_type)
    <2e5>   DW_AT_type        : <0x2d4>
 <1><2e9>: Abbrev Number: 8 (DW_TAG_pointer_type)
    <2ea>   DW_AT_byte_size   : 4
    <2eb>   DW_AT_type        : <0x2f4>
 <1><2ef>: Abbrev Number: 7 (DW_TAG_const_type)
    <2f0>   DW_AT_type        : <0x2e9>
 <1><2f4>: Abbrev Number: 9 (DW_TAG_subroutine_type)
    <2f5>   DW_AT_prototyped  : 1
 <1><2f5>: Abbrev Number: 10 (DW_TAG_variable)
    <2f6>   DW_AT_name        : (indirect string, offset: 0x1fc): g_pfnVectors
    <2fa>   DW_AT_decl_file   : 1
    <2fb>   DW_AT_decl_line   : 45
    <2fc>   DW_AT_decl_column : 54
    <2fd>   DW_AT_type        : <0x2e4>
    <301>   DW_AT_external    : 1
    <301>   DW_AT_location    : 5 byte block: 3 0 0 0 0 	(DW_OP_addr: 0)
 <1><307>: Abbrev Number: 11 (DW_TAG_variable)
    <308>   DW_AT_name        : (indirect string, offset: 0x258): _etext
    <30c>   DW_AT_decl_file   : 1
    <30d>   DW_AT_decl_line   : 211
    <30e>   DW_AT_decl_column : 22
    <30f>   DW_AT_type        : <0x28f>
    <313>   DW_AT_external    : 1
    <313>   DW_AT_declaration : 1
 <1><313>: Abbrev Number: 11 (DW_TAG_variable)
    <314>   DW_AT_name        : (indirect string, offset: 0x266): _data
    <318>   DW_AT_decl_file   : 1
    <319>   DW_AT_decl_line   : 212
    <31a>   DW_AT_decl_column : 22
    <31b>   DW_AT_type        : <0x28f>
    <31f>   DW_AT_external    : 1
    <31f>   DW_AT_declaration : 1
 <1><31f>: Abbrev Number: 11 (DW_TAG_variable)
    <320>   DW_AT_name        : (indirect string, offset: 0x212): _edata
    <324>   DW_AT_decl_file   : 1
    <325>   DW_AT_decl_line   : 213
    <326>   DW_AT_decl_column : 22
    <327>   DW_AT_type        : <0x28f>
    <32b>   DW_AT_external    : 1
    <32b>   DW_AT_declaration : 1
 <1><32b>: Abbrev Number: 11 (DW_TAG_variable)
    <32c>   DW_AT_name        : (indirect string, offset: 0x1ee): _bss
    <330>   DW_AT_decl_file   : 1
    <331>   DW_AT_decl_line   : 214
    <332>   DW_AT_decl_column : 22
    <333>   DW_AT_type        : <0x28f>
    <337>   DW_AT_external    : 1
    <337>   DW_AT_declaration : 1
 <1><337>: Abbrev Number: 11 (DW_TAG_variable)
    <338>   DW_AT_name        : (indirect string, offset: 0x1e8): _ebss
    <33c>   DW_AT_decl_file   : 1
    <33d>   DW_AT_decl_line   : 215
    <33e>   DW_AT_decl_column : 22
    <33f>   DW_AT_type        : <0x28f>
    <343>   DW_AT_external    : 1
    <343>   DW_AT_declaration : 1
 <1><343>: Abbrev Number: 12 (DW_TAG_subprogram)
    <344>   DW_AT_external    : 1
    <344>   DW_AT_name        : (indirect string, offset: 0x24a): GPIOF_Handler
    <348>   DW_AT_decl_file   : 1
    <349>   DW_AT_decl_line   : 312
    <34b>   DW_AT_decl_column : 28
    <34c>   DW_AT_prototyped  : 1
    <34c>   DW_AT_low_pc      : 0x47a
    <350>   DW_AT_high_pc     : 0x6
    <354>   DW_AT_frame_base  : 1 byte block: 9c 	(DW_OP_call_frame_cfa)
    <356>   DW_AT_GNU_all_call_sites: 1
 <1><356>: Abbrev Number: 12 (DW_TAG_subprogram)
    <357>   DW_AT_external    : 1
    <357>   DW_AT_name        : (indirect string, offset: 0x1b8): SysTick_Handler
    <35b>   DW_AT_decl_file   : 1
    <35c>   DW_AT_decl_line   : 308
    <35e>   DW_AT_decl_column : 28
    <35f>   DW_AT_prototyped  : 1
    <35f>   DW_AT_low_pc      : 0x0
    <363>   DW_AT_high_pc     : 0x6
    <367>   DW_AT_frame_base  : 1 byte block: 9c 	(DW_OP_call_frame_cfa)
    <369>   DW_AT_GNU_all_call_sites: 1
 <1><369>: Abbrev Number: 13 (DW_TAG_subprogram)
    <36a>   DW_AT_name        : (indirect string, offset: 0x221): IntDefaultHandler
    <36e>   DW_AT_decl_file   : 1
    <36f>   DW_AT_decl_line   : 294
    <371>   DW_AT_decl_column : 13
    <372>   DW_AT_prototyped  : 1
    <372>   DW_AT_low_pc      : 0x474
    <376>   DW_AT_high_pc     : 0x6
    <37a>   DW_AT_frame_base  : 1 byte block: 9c 	(DW_OP_call_frame_cfa)
    <37c>   DW_AT_GNU_all_call_sites: 1
 <1><37c>: Abbrev Number: 13 (DW_TAG_subprogram)
    <37d>   DW_AT_name        : (indirect string, offset: 0x233): FaultISR
    <381>   DW_AT_decl_file   : 1
    <382>   DW_AT_decl_line   : 279
    <384>   DW_AT_decl_column : 13
    <385>   DW_AT_prototyped  : 1
    <385>   DW_AT_low_pc      : 0x46e
    <389>   DW_AT_high_pc     : 0x6
    <38d>   DW_AT_frame_base  : 1 byte block: 9c 	(DW_OP_call_frame_cfa)
    <38f>   DW_AT_GNU_all_call_sites: 1
 <1><38f>: Abbrev Number: 13 (DW_TAG_subprogram)
    <390>   DW_AT_name        : (indirect string, offset: 0x26c): NmiSR
    <394>   DW_AT_decl_file   : 1
    <395>   DW_AT_decl_line   : 264
    <397>   DW_AT_decl_column : 13
    <398>   DW_AT_prototyped  : 1
    <398>   DW_AT_low_pc      : 0x468
    <39c>   DW_AT_high_pc     : 0x6
    <3a0>   DW_AT_frame_base  : 1 byte block: 9c 	(DW_OP_call_frame_cfa)
    <3a2>   DW_AT_GNU_all_call_sites: 1
 <1><3a2>: Abbrev Number: 14 (DW_TAG_subprogram)
    <3a3>   DW_AT_external    : 1
    <3a3>   DW_AT_name        : (indirect string, offset: 0x209): ResetISR
    <3a7>   DW_AT_decl_file   : 1
    <3a8>   DW_AT_decl_line   : 227
    <3a9>   DW_AT_decl_column : 6
    <3aa>   DW_AT_prototyped  : 1
    <3aa>   DW_AT_low_pc      : 0x40c
    <3ae>   DW_AT_high_pc     : 0x54
    <3b2>   DW_AT_frame_base  : 1 byte block: 9c 	(DW_OP_call_frame_cfa)
    <3b4>   DW_AT_GNU_all_tail_call_sites: 1
    <3b4>   DW_AT_sibling     : <0x3d7>
 <2><3b8>: Abbrev Number: 6 (DW_TAG_variable)
    <3b9>   DW_AT_name        : (indirect string, offset: 0x25f): pulSrc
    <3bd>   DW_AT_decl_file   : 1
    <3be>   DW_AT_decl_line   : 228
    <3bf>   DW_AT_decl_column : 18
    <3c0>   DW_AT_type        : <0x3d7>
    <3c4>   DW_AT_location    : 2 byte block: 91 74 	(DW_OP_fbreg: -12)
 <2><3c7>: Abbrev Number: 6 (DW_TAG_variable)
    <3c8>   DW_AT_name        : (indirect string, offset: 0x219): pulDest
    <3cc>   DW_AT_decl_file   : 1
    <3cd>   DW_AT_decl_line   : 228
    <3ce>   DW_AT_decl_column : 27
    <3cf>   DW_AT_type        : <0x3d7>
    <3d3>   DW_AT_location    : 2 byte block: 91 70 	(DW_OP_fbreg: -16)
 <2><3d6>: Abbrev Number: 0
 <1><3d7>: Abbrev Number: 8 (DW_TAG_pointer_type)
    <3d8>   DW_AT_byte_size   : 4
    <3d9>   DW_AT_type        : <0x28f>
 <1><3dd>: Abbrev Number: 0
  Compilation Unit @ offset 0x3de:
   Length:        0x92 (32-bit)
   Version:       4
   Abbrev Offset: 0x25d
   Pointer Size:  4
 <0><3e9>: Abbrev Number: 1 (DW_TAG_compile_unit)
    <3ea>   DW_AT_producer    : (indirect string, offset: 0x9d): GNU C99 9.3.1 20200408 (release) -mthumb -mcpu=cortex-m4 -mfpu=fpv4-sp-d16 -mfloat-abi=softfp -march=armv7e-m+fp -g -Os -O0 -std=c99 -ffunction-sections -fdata-sections
    <3ee>   DW_AT_language    : 12	(ANSI C99)
    <3ef>   DW_AT_name        : (indirect string, offset: 0x272): systick.c
    <3f3>   DW_AT_comp_dir    : (indirect string, offset: 0x159): /home/balder/Documents/uni/lectures/Semester 4/semesterproj/microcontroller
    <3f7>   DW_AT_ranges      : 0x78
    <3fb>   DW_AT_low_pc      : 0x0
    <3ff>   DW_AT_stmt_list   : 0x42f
 <1><403>: Abbrev Number: 2 (DW_TAG_base_type)
    <404>   DW_AT_byte_size   : 1
    <405>   DW_AT_encoding    : 6	(signed char)
    <406>   DW_AT_name        : (indirect string, offset: 0x25): signed char
 <1><40a>: Abbrev Number: 2 (DW_TAG_base_type)
    <40b>   DW_AT_byte_size   : 1
    <40c>   DW_AT_encoding    : 8	(unsigned char)
    <40d>   DW_AT_name        : (indirect string, offset: 0x23): unsigned char
 <1><411>: Abbrev Number: 2 (DW_TAG_base_type)
    <412>   DW_AT_byte_size   : 2
    <413>   DW_AT_encoding    : 5	(signed)
    <414>   DW_AT_name        : (indirect string, offset: 0x5c): short int
 <1><418>: Abbrev Number: 2 (DW_TAG_base_type)
    <419>   DW_AT_byte_size   : 2
    <41a>   DW_AT_encoding    : 7	(unsigned)
    <41b>   DW_AT_name        : (indirect string, offset: 0x31): short unsigned int
 <1><41f>: Abbrev Number: 2 (DW_TAG_base_type)
    <420>   DW_AT_byte_size   : 4
    <421>   DW_AT_encoding    : 5	(signed)
    <422>   DW_AT_name        : (indirect string, offset: 0x94): long int
 <1><426>: Abbrev Number: 3 (DW_TAG_typedef)
    <427>   DW_AT_name        : (indirect string, offset: 0x44): __uint32_t
    <42b>   DW_AT_decl_file   : 2
    <42c>   DW_AT_decl_line   : 79
    <42d>   DW_AT_decl_column : 25
    <42e>   DW_AT_type        : <0x432>
 <1><432>: Abbrev Number: 2 (DW_TAG_base_type)
    <433>   DW_AT_byte_size   : 4
    <434>   DW_AT_encoding    : 7	(unsigned)
    <435>   DW_AT_name        : (indirect string, offset: 0x7d): long unsigned int
 <1><439>: Abbrev Number: 2 (DW_TAG_base_type)
    <43a>   DW_AT_byte_size   : 8
    <43b>   DW_AT_encoding    : 5	(signed)
    <43c>   DW_AT_name        : (indirect string, offset: 0x8f): long long int
 <1><440>: Abbrev Number: 2 (DW_TAG_base_type)
    <441>   DW_AT_byte_size   : 8
    <442>   DW_AT_encoding    : 7	(unsigned)
    <443>   DW_AT_name        : (indirect string, offset: 0x78): long long unsigned int
 <1><447>: Abbrev Number: 4 (DW_TAG_base_type)
    <448>   DW_AT_byte_size   : 4
    <449>   DW_AT_encoding    : 5	(signed)
    <44a>   DW_AT_name        : int
 <1><44e>: Abbrev Number: 2 (DW_TAG_base_type)
    <44f>   DW_AT_byte_size   : 4
    <450>   DW_AT_encoding    : 7	(unsigned)
    <451>   DW_AT_name        : (indirect string, offset: 0x82): unsigned int
 <1><455>: Abbrev Number: 3 (DW_TAG_typedef)
    <456>   DW_AT_name        : (indirect string, offset: 0x46): uint32_t
    <45a>   DW_AT_decl_file   : 3
    <45b>   DW_AT_decl_line   : 48
    <45c>   DW_AT_decl_column : 20
    <45d>   DW_AT_type        : <0x426>
 <1><461>: Abbrev Number: 5 (DW_TAG_subprogram)
    <462>   DW_AT_external    : 1
    <462>   DW_AT_name        : (indirect string, offset: 0x27c): init_systick
    <466>   DW_AT_decl_file   : 1
    <467>   DW_AT_decl_line   : 3
    <468>   DW_AT_decl_column : 6
    <469>   DW_AT_prototyped  : 1
    <469>   DW_AT_low_pc      : 0x480
    <46d>   DW_AT_high_pc     : 0x5c
    <471>   DW_AT_frame_base  : 1 byte block: 9c 	(DW_OP_call_frame_cfa)
    <473>   DW_AT_GNU_all_call_sites: 1
 <1><473>: Abbrev Number: 0
  Compilation Unit @ offset 0x474:
   Length:        0x228 (32-bit)
   Version:       4
   Abbrev Offset: 0x2b0
   Pointer Size:  4
 <0><47f>: Abbrev Number: 1 (DW_TAG_compile_unit)
    <480>   DW_AT_producer    : (indirect string, offset: 0x9d): GNU C99 9.3.1 20200408 (release) -mthumb -mcpu=cortex-m4 -mfpu=fpv4-sp-d16 -mfloat-abi=softfp -march=armv7e-m+fp -g -Os -O0 -std=c99 -ffunction-sections -fdata-sections
    <484>   DW_AT_language    : 12	(ANSI C99)
    <485>   DW_AT_name        : (indirect string, offset: 0x2d4): uart0.c
    <489>   DW_AT_comp_dir    : (indirect string, offset: 0x159): /home/balder/Documents/uni/lectures/Semester 4/semesterproj/microcontroller
    <48d>   DW_AT_ranges      : 0x88
    <491>   DW_AT_low_pc      : 0x0
    <495>   DW_AT_stmt_list   : 0x55e
 <1><499>: Abbrev Number: 2 (DW_TAG_base_type)
    <49a>   DW_AT_byte_size   : 1
    <49b>   DW_AT_encoding    : 6	(signed char)
    <49c>   DW_AT_name        : (indirect string, offset: 0x25): signed char
 <1><4a0>: Abbrev Number: 2 (DW_TAG_base_type)
    <4a1>   DW_AT_byte_size   : 1
    <4a2>   DW_AT_encoding    : 8	(unsigned char)
    <4a3>   DW_AT_name        : (indirect string, offset: 0x23): unsigned char
 <1><4a7>: Abbrev Number: 2 (DW_TAG_base_type)
    <4a8>   DW_AT_byte_size   : 2
    <4a9>   DW_AT_encoding    : 5	(signed)
    <4aa>   DW_AT_name        : (indirect string, offset: 0x5c): short int
 <1><4ae>: Abbrev Number: 2 (DW_TAG_base_type)
    <4af>   DW_AT_byte_size   : 2
    <4b0>   DW_AT_encoding    : 7	(unsigned)
    <4b1>   DW_AT_name        : (indirect string, offset: 0x31): short unsigned int
 <1><4b5>: Abbrev Number: 2 (DW_TAG_base_type)
    <4b6>   DW_AT_byte_size   : 4
    <4b7>   DW_AT_encoding    : 5	(signed)
    <4b8>   DW_AT_name        : (indirect string, offset: 0x94): long int
 <1><4bc>: Abbrev Number: 3 (DW_TAG_typedef)
    <4bd>   DW_AT_name        : (indirect string, offset: 0x44): __uint32_t
    <4c1>   DW_AT_decl_file   : 2
    <4c2>   DW_AT_decl_line   : 79
    <4c3>   DW_AT_decl_column : 25
    <4c4>   DW_AT_type        : <0x4c8>
 <1><4c8>: Abbrev Number: 2 (DW_TAG_base_type)
    <4c9>   DW_AT_byte_size   : 4
    <4ca>   DW_AT_encoding    : 7	(unsigned)
    <4cb>   DW_AT_name        : (indirect string, offset: 0x7d): long unsigned int
 <1><4cf>: Abbrev Number: 2 (DW_TAG_base_type)
    <4d0>   DW_AT_byte_size   : 8
    <4d1>   DW_AT_encoding    : 5	(signed)
    <4d2>   DW_AT_name        : (indirect string, offset: 0x8f): long long int
 <1><4d6>: Abbrev Number: 2 (DW_TAG_base_type)
    <4d7>   DW_AT_byte_size   : 8
    <4d8>   DW_AT_encoding    : 7	(unsigned)
    <4d9>   DW_AT_name        : (indirect string, offset: 0x78): long long unsigned int
 <1><4dd>: Abbrev Number: 4 (DW_TAG_base_type)
    <4de>   DW_AT_byte_size   : 4
    <4df>   DW_AT_encoding    : 5	(signed)
    <4e0>   DW_AT_name        : int
 <1><4e4>: Abbrev Number: 2 (DW_TAG_base_type)
    <4e5>   DW_AT_byte_size   : 4
    <4e6>   DW_AT_encoding    : 7	(unsigned)
    <4e7>   DW_AT_name        : (indirect string, offset: 0x82): unsigned int
 <1><4eb>: Abbrev Number: 3 (DW_TAG_typedef)
    <4ec>   DW_AT_name        : (indirect string, offset: 0x46): uint32_t
    <4f0>   DW_AT_decl_file   : 3
    <4f1>   DW_AT_decl_line   : 48
    <4f2>   DW_AT_decl_column : 20
    <4f3>   DW_AT_type        : <0x4bc>
 <1><4f7>: Abbrev Number: 3 (DW_TAG_typedef)
    <4f8>   DW_AT_name        : (indirect string, offset: 0x2dc): BOOLEAN
    <4fc>   DW_AT_decl_file   : 4
    <4fd>   DW_AT_decl_line   : 21
    <4fe>   DW_AT_decl_column : 23
    <4ff>   DW_AT_type        : <0x4a0>
 <1><503>: Abbrev Number: 3 (DW_TAG_typedef)
    <504>   DW_AT_name        : (indirect string, offset: 0x315): INT8U
    <508>   DW_AT_decl_file   : 4
    <509>   DW_AT_decl_line   : 22
    <50a>   DW_AT_decl_column : 23
    <50b>   DW_AT_type        : <0x4a0>
 <1><50f>: Abbrev Number: 3 (DW_TAG_typedef)
    <510>   DW_AT_name        : (indirect string, offset: 0x333): INT32U
    <514>   DW_AT_decl_file   : 4
    <515>   DW_AT_decl_line   : 26
    <516>   DW_AT_decl_column : 23
    <517>   DW_AT_type        : <0x4c8>
 <1><51b>: Abbrev Number: 2 (DW_TAG_base_type)
    <51c>   DW_AT_byte_size   : 4
    <51d>   DW_AT_encoding    : 4	(float)
    <51e>   DW_AT_name        : (indirect string, offset: 0x1cf): float
 <1><522>: Abbrev Number: 2 (DW_TAG_base_type)
    <523>   DW_AT_byte_size   : 8
    <524>   DW_AT_encoding    : 4	(float)
    <525>   DW_AT_name        : (indirect string, offset: 0x1d5): double
 <1><529>: Abbrev Number: 5 (DW_TAG_subprogram)
    <52a>   DW_AT_external    : 1
    <52a>   DW_AT_name        : (indirect string, offset: 0x31b): uart0_init
    <52e>   DW_AT_decl_file   : 1
    <52f>   DW_AT_decl_line   : 156
    <530>   DW_AT_decl_column : 13
    <531>   DW_AT_prototyped  : 1
    <531>   DW_AT_low_pc      : 0x5dc
    <535>   DW_AT_high_pc     : 0xf8
    <539>   DW_AT_frame_base  : 1 byte block: 9c 	(DW_OP_call_frame_cfa)
    <53b>   DW_AT_GNU_all_tail_call_sites: 1
    <53b>   DW_AT_sibling     : <0x58b>
 <2><53f>: Abbrev Number: 6 (DW_TAG_formal_parameter)
    <540>   DW_AT_name        : (indirect string, offset: 0x2e4): baud_rate
    <544>   DW_AT_decl_file   : 1
    <545>   DW_AT_decl_line   : 156
    <546>   DW_AT_decl_column : 32
    <547>   DW_AT_type        : <0x50f>
    <54b>   DW_AT_location    : 2 byte block: 91 64 	(DW_OP_fbreg: -28)
 <2><54e>: Abbrev Number: 6 (DW_TAG_formal_parameter)
    <54f>   DW_AT_name        : (indirect string, offset: 0x356): databits
    <553>   DW_AT_decl_file   : 1
    <554>   DW_AT_decl_line   : 156
    <555>   DW_AT_decl_column : 49
    <556>   DW_AT_type        : <0x503>
    <55a>   DW_AT_location    : 2 byte block: 91 63 	(DW_OP_fbreg: -29)
 <2><55d>: Abbrev Number: 6 (DW_TAG_formal_parameter)
    <55e>   DW_AT_name        : (indirect string, offset: 0x2b3): stopbits
    <562>   DW_AT_decl_file   : 1
    <563>   DW_AT_decl_line   : 156
    <564>   DW_AT_decl_column : 65
    <565>   DW_AT_type        : <0x503>
    <569>   DW_AT_location    : 2 byte block: 91 62 	(DW_OP_fbreg: -30)
 <2><56c>: Abbrev Number: 6 (DW_TAG_formal_parameter)
    <56d>   DW_AT_name        : (indirect string, offset: 0x34a): parity
    <571>   DW_AT_decl_file   : 1
    <572>   DW_AT_decl_line   : 156
    <573>   DW_AT_decl_column : 81
    <574>   DW_AT_type        : <0x503>
    <578>   DW_AT_location    : 2 byte block: 91 61 	(DW_OP_fbreg: -31)
 <2><57b>: Abbrev Number: 7 (DW_TAG_variable)
    <57c>   DW_AT_name        : BRD
    <580>   DW_AT_decl_file   : 1
    <581>   DW_AT_decl_line   : 161
    <582>   DW_AT_decl_column : 10
    <583>   DW_AT_type        : <0x50f>
    <587>   DW_AT_location    : 2 byte block: 91 6c 	(DW_OP_fbreg: -20)
 <2><58a>: Abbrev Number: 0
 <1><58b>: Abbrev Number: 8 (DW_TAG_subprogram)
    <58c>   DW_AT_external    : 1
    <58c>   DW_AT_name        : (indirect string, offset: 0x2c9): uart0_putc
    <590>   DW_AT_decl_file   : 1
    <591>   DW_AT_decl_line   : 148
    <592>   DW_AT_decl_column : 13
    <593>   DW_AT_prototyped  : 1
    <593>   DW_AT_low_pc      : 0x5bc
    <597>   DW_AT_high_pc     : 0x20
    <59b>   DW_AT_frame_base  : 1 byte block: 9c 	(DW_OP_call_frame_cfa)
    <59d>   DW_AT_GNU_all_call_sites: 1
    <59d>   DW_AT_sibling     : <0x5b0>
 <2><5a1>: Abbrev Number: 9 (DW_TAG_formal_parameter)
    <5a2>   DW_AT_name        : ch
    <5a5>   DW_AT_decl_file   : 1
    <5a6>   DW_AT_decl_line   : 148
    <5a7>   DW_AT_decl_column : 31
    <5a8>   DW_AT_type        : <0x503>
    <5ac>   DW_AT_location    : 2 byte block: 91 77 	(DW_OP_fbreg: -9)
 <2><5af>: Abbrev Number: 0
 <1><5b0>: Abbrev Number: 10 (DW_TAG_subprogram)
    <5b1>   DW_AT_external    : 1
    <5b1>   DW_AT_name        : (indirect string, offset: 0x326): uart0_tx_rdy
    <5b5>   DW_AT_decl_file   : 1
    <5b6>   DW_AT_decl_line   : 140
    <5b7>   DW_AT_decl_column : 16
    <5b8>   DW_AT_type        : <0x4f7>
    <5bc>   DW_AT_low_pc      : 0x59c
    <5c0>   DW_AT_high_pc     : 0x20
    <5c4>   DW_AT_frame_base  : 1 byte block: 9c 	(DW_OP_call_frame_cfa)
    <5c6>   DW_AT_GNU_all_call_sites: 1
 <1><5c6>: Abbrev Number: 10 (DW_TAG_subprogram)
    <5c7>   DW_AT_external    : 1
    <5c7>   DW_AT_name        : (indirect string, offset: 0x33a): uart0_getc
    <5cb>   DW_AT_decl_file   : 1
    <5cc>   DW_AT_decl_line   : 132
    <5cd>   DW_AT_decl_column : 14
    <5ce>   DW_AT_type        : <0x503>
    <5d2>   DW_AT_low_pc      : 0x0
    <5d6>   DW_AT_high_pc     : 0x18
    <5da>   DW_AT_frame_base  : 1 byte block: 9c 	(DW_OP_call_frame_cfa)
    <5dc>   DW_AT_GNU_all_call_sites: 1
 <1><5dc>: Abbrev Number: 10 (DW_TAG_subprogram)
    <5dd>   DW_AT_external    : 1
    <5dd>   DW_AT_name        : (indirect string, offset: 0x2bc): uart0_rx_rdy
    <5e1>   DW_AT_decl_file   : 1
    <5e2>   DW_AT_decl_line   : 124
    <5e3>   DW_AT_decl_column : 16
    <5e4>   DW_AT_type        : <0x4f7>
    <5e8>   DW_AT_low_pc      : 0x0
    <5ec>   DW_AT_high_pc     : 0x20
    <5f0>   DW_AT_frame_base  : 1 byte block: 9c 	(DW_OP_call_frame_cfa)
    <5f2>   DW_AT_GNU_all_call_sites: 1
 <1><5f2>: Abbrev Number: 11 (DW_TAG_subprogram)
    <5f3>   DW_AT_external    : 1
    <5f3>   DW_AT_name        : (indirect string, offset: 0x2ee): uart0_fifos_disable
    <5f7>   DW_AT_decl_file   : 1
    <5f8>   DW_AT_decl_line   : 113
    <5f9>   DW_AT_decl_column : 6
    <5fa>   DW_AT_low_pc      : 0x57c
    <5fe>   DW_AT_high_pc     : 0x20
    <602>   DW_AT_frame_base  : 1 byte block: 9c 	(DW_OP_call_frame_cfa)
    <604>   DW_AT_GNU_all_call_sites: 1
 <1><604>: Abbrev Number: 11 (DW_TAG_subprogram)
    <605>   DW_AT_external    : 1
    <605>   DW_AT_name        : (indirect string, offset: 0x302): uart0_fifos_enable
    <609>   DW_AT_decl_file   : 1
    <60a>   DW_AT_decl_line   : 103
    <60b>   DW_AT_decl_column : 6
    <60c>   DW_AT_low_pc      : 0x0
    <610>   DW_AT_high_pc     : 0x20
    <614>   DW_AT_frame_base  : 1 byte block: 9c 	(DW_OP_call_frame_cfa)
    <616>   DW_AT_GNU_all_call_sites: 1
 <1><616>: Abbrev Number: 12 (DW_TAG_subprogram)
    <617>   DW_AT_external    : 1
    <617>   DW_AT_name        : (indirect string, offset: 0x345): lcrh_parity
    <61b>   DW_AT_decl_file   : 1
    <61c>   DW_AT_decl_line   : 67
    <61d>   DW_AT_decl_column : 8
    <61e>   DW_AT_prototyped  : 1
    <61e>   DW_AT_type        : <0x50f>
    <622>   DW_AT_low_pc      : 0x52a
    <626>   DW_AT_high_pc     : 0x50
    <62a>   DW_AT_frame_base  : 1 byte block: 9c 	(DW_OP_call_frame_cfa)
    <62c>   DW_AT_GNU_all_call_sites: 1
    <62c>   DW_AT_sibling     : <0x64f>
 <2><630>: Abbrev Number: 6 (DW_TAG_formal_parameter)
    <631>   DW_AT_name        : (indirect string, offset: 0x34a): parity
    <635>   DW_AT_decl_file   : 1
    <636>   DW_AT_decl_line   : 67
    <637>   DW_AT_decl_column : 27
    <638>   DW_AT_type        : <0x503>
    <63c>   DW_AT_location    : 2 byte block: 91 6f 	(DW_OP_fbreg: -17)
 <2><63f>: Abbrev Number: 13 (DW_TAG_variable)
    <640>   DW_AT_name        : (indirect string, offset: 0x289): result
    <644>   DW_AT_decl_file   : 1
    <645>   DW_AT_decl_line   : 80
    <646>   DW_AT_decl_column : 10
    <647>   DW_AT_type        : <0x50f>
    <64b>   DW_AT_location    : 2 byte block: 91 74 	(DW_OP_fbreg: -12)
 <2><64e>: Abbrev Number: 0
 <1><64f>: Abbrev Number: 12 (DW_TAG_subprogram)
    <650>   DW_AT_external    : 1
    <650>   DW_AT_name        : (indirect string, offset: 0x2ae): lcrh_stopbits
    <654>   DW_AT_decl_file   : 1
    <655>   DW_AT_decl_line   : 51
    <656>   DW_AT_decl_column : 8
    <657>   DW_AT_prototyped  : 1
    <657>   DW_AT_type        : <0x50f>
    <65b>   DW_AT_low_pc      : 0x508
    <65f>   DW_AT_high_pc     : 0x22
    <663>   DW_AT_frame_base  : 1 byte block: 9c 	(DW_OP_call_frame_cfa)
    <665>   DW_AT_GNU_all_call_sites: 1
    <665>   DW_AT_sibling     : <0x679>
 <2><669>: Abbrev Number: 6 (DW_TAG_formal_parameter)
    <66a>   DW_AT_name        : (indirect string, offset: 0x290): antal_stopbits
    <66e>   DW_AT_decl_file   : 1
    <66f>   DW_AT_decl_line   : 51
    <670>   DW_AT_decl_column : 29
    <671>   DW_AT_type        : <0x503>
    <675>   DW_AT_location    : 2 byte block: 91 77 	(DW_OP_fbreg: -9)
 <2><678>: Abbrev Number: 0
 <1><679>: Abbrev Number: 14 (DW_TAG_subprogram)
    <67a>   DW_AT_external    : 1
    <67a>   DW_AT_name        : (indirect string, offset: 0x351): lcrh_databits
    <67e>   DW_AT_decl_file   : 1
    <67f>   DW_AT_decl_line   : 34
    <680>   DW_AT_decl_column : 8
    <681>   DW_AT_prototyped  : 1
    <681>   DW_AT_type        : <0x50f>
    <685>   DW_AT_low_pc      : 0x4dc
    <689>   DW_AT_high_pc     : 0x2c
    <68d>   DW_AT_frame_base  : 1 byte block: 9c 	(DW_OP_call_frame_cfa)
    <68f>   DW_AT_GNU_all_call_sites: 1
 <2><68f>: Abbrev Number: 6 (DW_TAG_formal_parameter)
    <690>   DW_AT_name        : (indirect string, offset: 0x29f): antal_databits
    <694>   DW_AT_decl_file   : 1
    <695>   DW_AT_decl_line   : 34
    <696>   DW_AT_decl_column : 29
    <697>   DW_AT_type        : <0x503>
    <69b>   DW_AT_location    : 2 byte block: 91 77 	(DW_OP_fbreg: -9)
 <2><69e>: Abbrev Number: 0
 <1><69f>: Abbrev Number: 0
  Compilation Unit @ offset 0x6a0:
   Length:        0x16c (32-bit)
   Version:       4
   Abbrev Offset: 0x3d1
   Pointer Size:  4
 <0><6ab>: Abbrev Number: 1 (DW_TAG_compile_unit)
    <6ac>   DW_AT_producer    : (indirect string, offset: 0x9d): GNU C99 9.3.1 20200408 (release) -mthumb -mcpu=cortex-m4 -mfpu=fpv4-sp-d16 -mfloat-abi=softfp -march=armv7e-m+fp -g -Os -O0 -std=c99 -ffunction-sections -fdata-sections
    <6b0>   DW_AT_language    : 12	(ANSI C99)
    <6b1>   DW_AT_name        : (indirect string, offset: 0x390): uart.c
    <6b5>   DW_AT_comp_dir    : (indirect string, offset: 0x159): /home/balder/Documents/uni/lectures/Semester 4/semesterproj/microcontroller
    <6b9>   DW_AT_ranges      : 0xe0
    <6bd>   DW_AT_low_pc      : 0x0
    <6c1>   DW_AT_stmt_list   : 0x7d8
 <1><6c5>: Abbrev Number: 2 (DW_TAG_base_type)
    <6c6>   DW_AT_byte_size   : 1
    <6c7>   DW_AT_encoding    : 8	(unsigned char)
    <6c8>   DW_AT_name        : (indirect string, offset: 0x23): unsigned char
 <1><6cc>: Abbrev Number: 2 (DW_TAG_base_type)
    <6cd>   DW_AT_byte_size   : 1
    <6ce>   DW_AT_encoding    : 6	(signed char)
    <6cf>   DW_AT_name        : (indirect string, offset: 0x25): signed char
 <1><6d3>: Abbrev Number: 2 (DW_TAG_base_type)
    <6d4>   DW_AT_byte_size   : 2
    <6d5>   DW_AT_encoding    : 7	(unsigned)
    <6d6>   DW_AT_name        : (indirect string, offset: 0x31): short unsigned int
 <1><6da>: Abbrev Number: 2 (DW_TAG_base_type)
    <6db>   DW_AT_byte_size   : 2
    <6dc>   DW_AT_encoding    : 5	(signed)
    <6dd>   DW_AT_name        : (indirect string, offset: 0x5c): short int
 <1><6e1>: Abbrev Number: 2 (DW_TAG_base_type)
    <6e2>   DW_AT_byte_size   : 4
    <6e3>   DW_AT_encoding    : 7	(unsigned)
    <6e4>   DW_AT_name        : (indirect string, offset: 0x7d): long unsigned int
 <1><6e8>: Abbrev Number: 2 (DW_TAG_base_type)
    <6e9>   DW_AT_byte_size   : 4
    <6ea>   DW_AT_encoding    : 5	(signed)
    <6eb>   DW_AT_name        : (indirect string, offset: 0x94): long int
 <1><6ef>: Abbrev Number: 2 (DW_TAG_base_type)
    <6f0>   DW_AT_byte_size   : 8
    <6f1>   DW_AT_encoding    : 7	(unsigned)
    <6f2>   DW_AT_name        : (indirect string, offset: 0x78): long long unsigned int
 <1><6f6>: Abbrev Number: 2 (DW_TAG_base_type)
    <6f7>   DW_AT_byte_size   : 8
    <6f8>   DW_AT_encoding    : 5	(signed)
    <6f9>   DW_AT_name        : (indirect string, offset: 0x8f): long long int
 <1><6fd>: Abbrev Number: 2 (DW_TAG_base_type)
    <6fe>   DW_AT_byte_size   : 4
    <6ff>   DW_AT_encoding    : 4	(float)
    <700>   DW_AT_name        : (indirect string, offset: 0x1cf): float
 <1><704>: Abbrev Number: 2 (DW_TAG_base_type)
    <705>   DW_AT_byte_size   : 8
    <706>   DW_AT_encoding    : 4	(float)
    <707>   DW_AT_name        : (indirect string, offset: 0x1d5): double
 <1><70b>: Abbrev Number: 3 (DW_TAG_subprogram)
    <70c>   DW_AT_external    : 1
    <70c>   DW_AT_name        : (indirect string, offset: 0x3c7): uart_put_stringln
    <710>   DW_AT_decl_file   : 1
    <711>   DW_AT_decl_line   : 38
    <712>   DW_AT_decl_column : 6
    <713>   DW_AT_prototyped  : 1
    <713>   DW_AT_low_pc      : 0x73a
    <717>   DW_AT_high_pc     : 0x1c
    <71b>   DW_AT_frame_base  : 1 byte block: 9c 	(DW_OP_call_frame_cfa)
    <71d>   DW_AT_GNU_all_tail_call_sites: 1
    <71d>   DW_AT_sibling     : <0x731>
 <2><721>: Abbrev Number: 4 (DW_TAG_formal_parameter)
    <722>   DW_AT_name        : str
    <726>   DW_AT_decl_file   : 1
    <727>   DW_AT_decl_line   : 38
    <728>   DW_AT_decl_column : 30
    <729>   DW_AT_type        : <0x731>
    <72d>   DW_AT_location    : 2 byte block: 91 74 	(DW_OP_fbreg: -12)
 <2><730>: Abbrev Number: 0
 <1><731>: Abbrev Number: 5 (DW_TAG_pointer_type)
    <732>   DW_AT_byte_size   : 4
    <733>   DW_AT_type        : <0x737>
 <1><737>: Abbrev Number: 2 (DW_TAG_base_type)
    <738>   DW_AT_byte_size   : 1
    <739>   DW_AT_encoding    : 8	(unsigned char)
    <73a>   DW_AT_name        : (indirect string, offset: 0x2c): char
 <1><73e>: Abbrev Number: 3 (DW_TAG_subprogram)
    <73f>   DW_AT_external    : 1
    <73f>   DW_AT_name        : (indirect string, offset: 0x35f): uart_put_string
    <743>   DW_AT_decl_file   : 1
    <744>   DW_AT_decl_line   : 34
    <745>   DW_AT_decl_column : 6
    <746>   DW_AT_prototyped  : 1
    <746>   DW_AT_low_pc      : 0x710
    <74a>   DW_AT_high_pc     : 0x2a
    <74e>   DW_AT_frame_base  : 1 byte block: 9c 	(DW_OP_call_frame_cfa)
    <750>   DW_AT_GNU_all_tail_call_sites: 1
    <750>   DW_AT_sibling     : <0x764>
 <2><754>: Abbrev Number: 4 (DW_TAG_formal_parameter)
    <755>   DW_AT_name        : str
    <759>   DW_AT_decl_file   : 1
    <75a>   DW_AT_decl_line   : 34
    <75b>   DW_AT_decl_column : 28
    <75c>   DW_AT_type        : <0x731>
    <760>   DW_AT_location    : 2 byte block: 91 74 	(DW_OP_fbreg: -12)
 <2><763>: Abbrev Number: 0
 <1><764>: Abbrev Number: 6 (DW_TAG_subprogram)
    <765>   DW_AT_external    : 1
    <765>   DW_AT_name        : (indirect string, offset: 0x3b6): uart_init
    <769>   DW_AT_decl_file   : 1
    <76a>   DW_AT_decl_line   : 30
    <76b>   DW_AT_decl_column : 6
    <76c>   DW_AT_low_pc      : 0x6fa
    <770>   DW_AT_high_pc     : 0x16
    <774>   DW_AT_frame_base  : 1 byte block: 9c 	(DW_OP_call_frame_cfa)
    <776>   DW_AT_GNU_all_tail_call_sites: 1
 <1><776>: Abbrev Number: 7 (DW_TAG_subprogram)
    <777>   DW_AT_external    : 1
    <777>   DW_AT_name        : (indirect string, offset: 0x397): uart_get_string
    <77b>   DW_AT_decl_file   : 1
    <77c>   DW_AT_decl_line   : 13
    <77d>   DW_AT_decl_column : 8
    <77e>   DW_AT_type        : <0x731>
    <782>   DW_AT_low_pc      : 0x0
    <786>   DW_AT_high_pc     : 0x48
    <78a>   DW_AT_frame_base  : 1 byte block: 9c 	(DW_OP_call_frame_cfa)
    <78c>   DW_AT_GNU_all_tail_call_sites: 1
    <78c>   DW_AT_sibling     : <0x7c1>
 <2><790>: Abbrev Number: 8 (DW_TAG_variable)
    <791>   DW_AT_name        : (indirect string, offset: 0x3c0): buffer
    <795>   DW_AT_decl_file   : 1
    <796>   DW_AT_decl_line   : 14
    <797>   DW_AT_decl_column : 17
    <798>   DW_AT_type        : <0x7c1>
    <79c>   DW_AT_location    : 5 byte block: 3 0 0 0 0 	(DW_OP_addr: 0)
 <2><7a2>: Abbrev Number: 8 (DW_TAG_variable)
    <7a3>   DW_AT_name        : (indirect string, offset: 0x3a7): buffer_pointer
    <7a7>   DW_AT_decl_file   : 1
    <7a8>   DW_AT_decl_line   : 15
    <7a9>   DW_AT_decl_column : 11
    <7aa>   DW_AT_type        : <0x731>
    <7ae>   DW_AT_location    : 2 byte block: 91 74 	(DW_OP_fbreg: -12)
 <2><7b1>: Abbrev Number: 8 (DW_TAG_variable)
    <7b2>   DW_AT_name        : (indirect string, offset: 0x383): current_char
    <7b6>   DW_AT_decl_file   : 1
    <7b7>   DW_AT_decl_line   : 17
    <7b8>   DW_AT_decl_column : 10
    <7b9>   DW_AT_type        : <0x737>
    <7bd>   DW_AT_location    : 2 byte block: 91 73 	(DW_OP_fbreg: -13)
 <2><7c0>: Abbrev Number: 0
 <1><7c1>: Abbrev Number: 9 (DW_TAG_array_type)
    <7c2>   DW_AT_type        : <0x737>
    <7c6>   DW_AT_sibling     : <0x7d1>
 <2><7ca>: Abbrev Number: 10 (DW_TAG_subrange_type)
    <7cb>   DW_AT_type        : <0x7d1>
    <7cf>   DW_AT_upper_bound : 255
 <2><7d0>: Abbrev Number: 0
 <1><7d1>: Abbrev Number: 2 (DW_TAG_base_type)
    <7d2>   DW_AT_byte_size   : 4
    <7d3>   DW_AT_encoding    : 7	(unsigned)
    <7d4>   DW_AT_name        : (indirect string, offset: 0x82): unsigned int
 <1><7d8>: Abbrev Number: 11 (DW_TAG_subprogram)
    <7d9>   DW_AT_external    : 1
    <7d9>   DW_AT_name        : (indirect string, offset: 0x379): uart_getc
    <7dd>   DW_AT_decl_file   : 1
    <7de>   DW_AT_decl_line   : 8
    <7df>   DW_AT_decl_column : 6
    <7e0>   DW_AT_type        : <0x737>
    <7e4>   DW_AT_low_pc      : 0x0
    <7e8>   DW_AT_high_pc     : 0x1a
    <7ec>   DW_AT_frame_base  : 1 byte block: 9c 	(DW_OP_call_frame_cfa)
    <7ee>   DW_AT_GNU_all_tail_call_sites: 1
 <1><7ee>: Abbrev Number: 12 (DW_TAG_subprogram)
    <7ef>   DW_AT_external    : 1
    <7ef>   DW_AT_name        : (indirect string, offset: 0x36f): uart_putc
    <7f3>   DW_AT_decl_file   : 1
    <7f4>   DW_AT_decl_line   : 3
    <7f5>   DW_AT_decl_column : 6
    <7f6>   DW_AT_prototyped  : 1
    <7f6>   DW_AT_low_pc      : 0x6d4
    <7fa>   DW_AT_high_pc     : 0x26
    <7fe>   DW_AT_frame_base  : 1 byte block: 9c 	(DW_OP_call_frame_cfa)
    <800>   DW_AT_GNU_all_tail_call_sites: 1
 <2><800>: Abbrev Number: 4 (DW_TAG_formal_parameter)
    <801>   DW_AT_name        : ch
    <804>   DW_AT_decl_file   : 1
    <805>   DW_AT_decl_line   : 3
    <806>   DW_AT_decl_column : 21
    <807>   DW_AT_type        : <0x737>
    <80b>   DW_AT_location    : 2 byte block: 91 77 	(DW_OP_fbreg: -9)
 <2><80e>: Abbrev Number: 0
 <1><80f>: Abbrev Number: 0

Contents of the .debug_abbrev section:

  Number TAG (0x0)
   1      DW_TAG_compile_unit    [has children]
    DW_AT_producer     DW_FORM_strp
    DW_AT_language     DW_FORM_data1
    DW_AT_name         DW_FORM_strp
    DW_AT_comp_dir     DW_FORM_strp
    DW_AT_ranges       DW_FORM_sec_offset
    DW_AT_low_pc       DW_FORM_addr
    DW_AT_stmt_list    DW_FORM_sec_offset
    DW_AT value: 0     DW_FORM value: 0
   2      DW_TAG_enumeration_type    [has children]
    DW_AT_name         DW_FORM_strp
    DW_AT_encoding     DW_FORM_data1
    DW_AT_byte_size    DW_FORM_data1
    DW_AT_type         DW_FORM_ref4
    DW_AT_decl_file    DW_FORM_data1
    DW_AT_decl_line    DW_FORM_data1
    DW_AT_decl_column  DW_FORM_data1
    DW_AT_sibling      DW_FORM_ref4
    DW_AT value: 0     DW_FORM value: 0
   3      DW_TAG_enumerator    [no children]
    DW_AT_name         DW_FORM_string
    DW_AT_const_value  DW_FORM_data1
    DW_AT value: 0     DW_FORM value: 0
   4      DW_TAG_enumerator    [no children]
    DW_AT_name         DW_FORM_strp
    DW_AT_const_value  DW_FORM_data1
    DW_AT value: 0     DW_FORM value: 0
   5      DW_TAG_base_type    [no children]
    DW_AT_byte_size    DW_FORM_data1
    DW_AT_encoding     DW_FORM_data1
    DW_AT_name         DW_FORM_strp
    DW_AT value: 0     DW_FORM value: 0
   6      DW_TAG_typedef    [no children]
    DW_AT_name         DW_FORM_strp
    DW_AT_decl_file    DW_FORM_data1
    DW_AT_decl_line    DW_FORM_data1
    DW_AT_decl_column  DW_FORM_data1
    DW_AT_type         DW_FORM_ref4
    DW_AT value: 0     DW_FORM value: 0
   7      DW_TAG_base_type    [no children]
    DW_AT_byte_size    DW_FORM_data1
    DW_AT_encoding     DW_FORM_data1
    DW_AT_name         DW_FORM_string
    DW_AT value: 0     DW_FORM value: 0
   8      DW_TAG_subprogram    [no children]
    DW_AT_external     DW_FORM_flag_present
    DW_AT_name         DW_FORM_strp
    DW_AT_decl_file    DW_FORM_data1
    DW_AT_decl_line    DW_FORM_data1
    DW_AT_decl_column  DW_FORM_data1
    DW_AT_type         DW_FORM_ref4
    DW_AT_low_pc       DW_FORM_addr
    DW_AT_high_pc      DW_FORM_data4
    DW_AT_frame_base   DW_FORM_exprloc
    DW_AT_GNU_all_call_sites DW_FORM_flag_present
    DW_AT value: 0     DW_FORM value: 0
   9      DW_TAG_subprogram    [has children]
    DW_AT_external     DW_FORM_flag_present
    DW_AT_name         DW_FORM_strp
    DW_AT_decl_file    DW_FORM_data1
    DW_AT_decl_line    DW_FORM_data1
    DW_AT_decl_column  DW_FORM_data1
    DW_AT_prototyped   DW_FORM_flag_present
    DW_AT_low_pc       DW_FORM_addr
    DW_AT_high_pc      DW_FORM_data4
    DW_AT_frame_base   DW_FORM_exprloc
    DW_AT_GNU_all_call_sites DW_FORM_flag_present
    DW_AT_sibling      DW_FORM_ref4
    DW_AT value: 0     DW_FORM value: 0
   10      DW_TAG_formal_parameter    [no children]
    DW_AT_name         DW_FORM_strp
    DW_AT_decl_file    DW_FORM_data1
    DW_AT_decl_line    DW_FORM_data1
    DW_AT_decl_column  DW_FORM_data1
    DW_AT_type         DW_FORM_ref4
    DW_AT_location     DW_FORM_exprloc
    DW_AT value: 0     DW_FORM value: 0
   11      DW_TAG_subprogram    [no children]
    DW_AT_external     DW_FORM_flag_present
    DW_AT_name         DW_FORM_strp
    DW_AT_decl_file    DW_FORM_data1
    DW_AT_decl_line    DW_FORM_data1
    DW_AT_decl_column  DW_FORM_data1
    DW_AT_low_pc       DW_FORM_addr
    DW_AT_high_pc      DW_FORM_data4
    DW_AT_frame_base   DW_FORM_exprloc
    DW_AT_GNU_all_call_sites DW_FORM_flag_present
    DW_AT value: 0     DW_FORM value: 0
  Number TAG (0xbf)
   1      DW_TAG_compile_unit    [has children]
    DW_AT_producer     DW_FORM_strp
    DW_AT_language     DW_FORM_data1
    DW_AT_name         DW_FORM_strp
    DW_AT_comp_dir     DW_FORM_strp
    DW_AT_ranges       DW_FORM_sec_offset
    DW_AT_low_pc       DW_FORM_addr
    DW_AT_stmt_list    DW_FORM_sec_offset
    DW_AT value: 0     DW_FORM value: 0
   2      DW_TAG_base_type    [no children]
    DW_AT_byte_size    DW_FORM_data1
    DW_AT_encoding     DW_FORM_data1
    DW_AT_name         DW_FORM_strp
    DW_AT value: 0     DW_FORM value: 0
   3      DW_TAG_typedef    [no children]
    DW_AT_name         DW_FORM_strp
    DW_AT_decl_file    DW_FORM_data1
    DW_AT_decl_line    DW_FORM_data1
    DW_AT_decl_column  DW_FORM_data1
    DW_AT_type         DW_FORM_ref4
    DW_AT value: 0     DW_FORM value: 0
   4      DW_TAG_volatile_type    [no children]
    DW_AT_type         DW_FORM_ref4
    DW_AT value: 0     DW_FORM value: 0
   5      DW_TAG_enumeration_type    [has children]
    DW_AT_name         DW_FORM_strp
    DW_AT_encoding     DW_FORM_data1
    DW_AT_byte_size    DW_FORM_data1
    DW_AT_type         DW_FORM_ref4
    DW_AT_decl_file    DW_FORM_data1
    DW_AT_decl_line    DW_FORM_data1
    DW_AT_decl_column  DW_FORM_data1
    DW_AT_sibling      DW_FORM_ref4
    DW_AT value: 0     DW_FORM value: 0
   6      DW_TAG_enumerator    [no children]
    DW_AT_name         DW_FORM_string
    DW_AT_const_value  DW_FORM_data1
    DW_AT value: 0     DW_FORM value: 0
   7      DW_TAG_enumerator    [no children]
    DW_AT_name         DW_FORM_strp
    DW_AT_const_value  DW_FORM_data1
    DW_AT value: 0     DW_FORM value: 0
   8      DW_TAG_base_type    [no children]
    DW_AT_byte_size    DW_FORM_data1
    DW_AT_encoding     DW_FORM_data1
    DW_AT_name         DW_FORM_string
    DW_AT value: 0     DW_FORM value: 0
   9      DW_TAG_variable    [no children]
    DW_AT_name         DW_FORM_strp
    DW_AT_decl_file    DW_FORM_data1
    DW_AT_decl_line    DW_FORM_data1
    DW_AT_decl_column  DW_FORM_data1
    DW_AT_type         DW_FORM_ref4
    DW_AT_external     DW_FORM_flag_present
    DW_AT_location     DW_FORM_exprloc
    DW_AT value: 0     DW_FORM value: 0
   10      DW_TAG_subprogram    [no children]
    DW_AT_external     DW_FORM_flag_present
    DW_AT_name         DW_FORM_strp
    DW_AT_decl_file    DW_FORM_data1
    DW_AT_decl_line    DW_FORM_data1
    DW_AT_decl_column  DW_FORM_data1
    DW_AT_prototyped   DW_FORM_flag_present
    DW_AT_type         DW_FORM_ref4
    DW_AT_low_pc       DW_FORM_addr
    DW_AT_high_pc      DW_FORM_data4
    DW_AT_frame_base   DW_FORM_exprloc
    DW_AT_GNU_all_tail_call_sites DW_FORM_flag_present
    DW_AT value: 0     DW_FORM value: 0
   11      DW_TAG_subprogram    [no children]
    DW_AT_external     DW_FORM_flag_present
    DW_AT_name         DW_FORM_strp
    DW_AT_decl_file    DW_FORM_data1
    DW_AT_decl_line    DW_FORM_data1
    DW_AT_decl_column  DW_FORM_data1
    DW_AT_low_pc       DW_FORM_addr
    DW_AT_high_pc      DW_FORM_data4
    DW_AT_frame_base   DW_FORM_exprloc
    DW_AT_GNU_all_tail_call_sites DW_FORM_flag_present
    DW_AT value: 0     DW_FORM value: 0
   12      DW_TAG_subprogram    [no children]
    DW_AT_external     DW_FORM_flag_present
    DW_AT_name         DW_FORM_strp
    DW_AT_decl_file    DW_FORM_data1
    DW_AT_decl_line    DW_FORM_data1
    DW_AT_decl_column  DW_FORM_data1
    DW_AT_low_pc       DW_FORM_addr
    DW_AT_high_pc      DW_FORM_data4
    DW_AT_frame_base   DW_FORM_exprloc
    DW_AT_GNU_all_call_sites DW_FORM_flag_present
    DW_AT value: 0     DW_FORM value: 0
  Number TAG (0x185)
   1      DW_TAG_compile_unit    [has children]
    DW_AT_producer     DW_FORM_strp
    DW_AT_language     DW_FORM_data1
    DW_AT_name         DW_FORM_strp
    DW_AT_comp_dir     DW_FORM_strp
    DW_AT_ranges       DW_FORM_sec_offset
    DW_AT_low_pc       DW_FORM_addr
    DW_AT_stmt_list    DW_FORM_sec_offset
    DW_AT value: 0     DW_FORM value: 0
   2      DW_TAG_base_type    [no children]
    DW_AT_byte_size    DW_FORM_data1
    DW_AT_encoding     DW_FORM_data1
    DW_AT_name         DW_FORM_strp
    DW_AT value: 0     DW_FORM value: 0
   3      DW_TAG_base_type    [no children]
    DW_AT_byte_size    DW_FORM_data1
    DW_AT_encoding     DW_FORM_data1
    DW_AT_name         DW_FORM_string
    DW_AT value: 0     DW_FORM value: 0
   4      DW_TAG_array_type    [has children]
    DW_AT_type         DW_FORM_ref4
    DW_AT_sibling      DW_FORM_ref4
    DW_AT value: 0     DW_FORM value: 0
   5      DW_TAG_subrange_type    [no children]
    DW_AT_type         DW_FORM_ref4
    DW_AT_upper_bound  DW_FORM_data1
    DW_AT value: 0     DW_FORM value: 0
   6      DW_TAG_variable    [no children]
    DW_AT_name         DW_FORM_strp
    DW_AT_decl_file    DW_FORM_data1
    DW_AT_decl_line    DW_FORM_data1
    DW_AT_decl_column  DW_FORM_data1
    DW_AT_type         DW_FORM_ref4
    DW_AT_location     DW_FORM_exprloc
    DW_AT value: 0     DW_FORM value: 0
   7      DW_TAG_const_type    [no children]
    DW_AT_type         DW_FORM_ref4
    DW_AT value: 0     DW_FORM value: 0
   8      DW_TAG_pointer_type    [no children]
    DW_AT_byte_size    DW_FORM_data1
    DW_AT_type         DW_FORM_ref4
    DW_AT value: 0     DW_FORM value: 0
   9      DW_TAG_subroutine_type    [no children]
    DW_AT_prototyped   DW_FORM_flag_present
    DW_AT value: 0     DW_FORM value: 0
   10      DW_TAG_variable    [no children]
    DW_AT_name         DW_FORM_strp
    DW_AT_decl_file    DW_FORM_data1
    DW_AT_decl_line    DW_FORM_data1
    DW_AT_decl_column  DW_FORM_data1
    DW_AT_type         DW_FORM_ref4
    DW_AT_external     DW_FORM_flag_present
    DW_AT_location     DW_FORM_exprloc
    DW_AT value: 0     DW_FORM value: 0
   11      DW_TAG_variable    [no children]
    DW_AT_name         DW_FORM_strp
    DW_AT_decl_file    DW_FORM_data1
    DW_AT_decl_line    DW_FORM_data1
    DW_AT_decl_column  DW_FORM_data1
    DW_AT_type         DW_FORM_ref4
    DW_AT_external     DW_FORM_flag_present
    DW_AT_declaration  DW_FORM_flag_present
    DW_AT value: 0     DW_FORM value: 0
   12      DW_TAG_subprogram    [no children]
    DW_AT_external     DW_FORM_flag_present
    DW_AT_name         DW_FORM_strp
    DW_AT_decl_file    DW_FORM_data1
    DW_AT_decl_line    DW_FORM_data2
    DW_AT_decl_column  DW_FORM_data1
    DW_AT_prototyped   DW_FORM_flag_present
    DW_AT_low_pc       DW_FORM_addr
    DW_AT_high_pc      DW_FORM_data4
    DW_AT_frame_base   DW_FORM_exprloc
    DW_AT_GNU_all_call_sites DW_FORM_flag_present
    DW_AT value: 0     DW_FORM value: 0
   13      DW_TAG_subprogram    [no children]
    DW_AT_name         DW_FORM_strp
    DW_AT_decl_file    DW_FORM_data1
    DW_AT_decl_line    DW_FORM_data2
    DW_AT_decl_column  DW_FORM_data1
    DW_AT_prototyped   DW_FORM_flag_present
    DW_AT_low_pc       DW_FORM_addr
    DW_AT_high_pc      DW_FORM_data4
    DW_AT_frame_base   DW_FORM_exprloc
    DW_AT_GNU_all_call_sites DW_FORM_flag_present
    DW_AT value: 0     DW_FORM value: 0
   14      DW_TAG_subprogram    [has children]
    DW_AT_external     DW_FORM_flag_present
    DW_AT_name         DW_FORM_strp
    DW_AT_decl_file    DW_FORM_data1
    DW_AT_decl_line    DW_FORM_data1
    DW_AT_decl_column  DW_FORM_data1
    DW_AT_prototyped   DW_FORM_flag_present
    DW_AT_low_pc       DW_FORM_addr
    DW_AT_high_pc      DW_FORM_data4
    DW_AT_frame_base   DW_FORM_exprloc
    DW_AT_GNU_all_tail_call_sites DW_FORM_flag_present
    DW_AT_sibling      DW_FORM_ref4
    DW_AT value: 0     DW_FORM value: 0
  Number TAG (0x25d)
   1      DW_TAG_compile_unit    [has children]
    DW_AT_producer     DW_FORM_strp
    DW_AT_language     DW_FORM_data1
    DW_AT_name         DW_FORM_strp
    DW_AT_comp_dir     DW_FORM_strp
    DW_AT_ranges       DW_FORM_sec_offset
    DW_AT_low_pc       DW_FORM_addr
    DW_AT_stmt_list    DW_FORM_sec_offset
    DW_AT value: 0     DW_FORM value: 0
   2      DW_TAG_base_type    [no children]
    DW_AT_byte_size    DW_FORM_data1
    DW_AT_encoding     DW_FORM_data1
    DW_AT_name         DW_FORM_strp
    DW_AT value: 0     DW_FORM value: 0
   3      DW_TAG_typedef    [no children]
    DW_AT_name         DW_FORM_strp
    DW_AT_decl_file    DW_FORM_data1
    DW_AT_decl_line    DW_FORM_data1
    DW_AT_decl_column  DW_FORM_data1
    DW_AT_type         DW_FORM_ref4
    DW_AT value: 0     DW_FORM value: 0
   4      DW_TAG_base_type    [no children]
    DW_AT_byte_size    DW_FORM_data1
    DW_AT_encoding     DW_FORM_data1
    DW_AT_name         DW_FORM_string
    DW_AT value: 0     DW_FORM value: 0
   5      DW_TAG_subprogram    [no children]
    DW_AT_external     DW_FORM_flag_present
    DW_AT_name         DW_FORM_strp
    DW_AT_decl_file    DW_FORM_data1
    DW_AT_decl_line    DW_FORM_data1
    DW_AT_decl_column  DW_FORM_data1
    DW_AT_prototyped   DW_FORM_flag_present
    DW_AT_low_pc       DW_FORM_addr
    DW_AT_high_pc      DW_FORM_data4
    DW_AT_frame_base   DW_FORM_exprloc
    DW_AT_GNU_all_call_sites DW_FORM_flag_present
    DW_AT value: 0     DW_FORM value: 0
  Number TAG (0x2b0)
   1      DW_TAG_compile_unit    [has children]
    DW_AT_producer     DW_FORM_strp
    DW_AT_language     DW_FORM_data1
    DW_AT_name         DW_FORM_strp
    DW_AT_comp_dir     DW_FORM_strp
    DW_AT_ranges       DW_FORM_sec_offset
    DW_AT_low_pc       DW_FORM_addr
    DW_AT_stmt_list    DW_FORM_sec_offset
    DW_AT value: 0     DW_FORM value: 0
   2      DW_TAG_base_type    [no children]
    DW_AT_byte_size    DW_FORM_data1
    DW_AT_encoding     DW_FORM_data1
    DW_AT_name         DW_FORM_strp
    DW_AT value: 0     DW_FORM value: 0
   3      DW_TAG_typedef    [no children]
    DW_AT_name         DW_FORM_strp
    DW_AT_decl_file    DW_FORM_data1
    DW_AT_decl_line    DW_FORM_data1
    DW_AT_decl_column  DW_FORM_data1
    DW_AT_type         DW_FORM_ref4
    DW_AT value: 0     DW_FORM value: 0
   4      DW_TAG_base_type    [no children]
    DW_AT_byte_size    DW_FORM_data1
    DW_AT_encoding     DW_FORM_data1
    DW_AT_name         DW_FORM_string
    DW_AT value: 0     DW_FORM value: 0
   5      DW_TAG_subprogram    [has children]
    DW_AT_external     DW_FORM_flag_present
    DW_AT_name         DW_FORM_strp
    DW_AT_decl_file    DW_FORM_data1
    DW_AT_decl_line    DW_FORM_data1
    DW_AT_decl_column  DW_FORM_data1
    DW_AT_prototyped   DW_FORM_flag_present
    DW_AT_low_pc       DW_FORM_addr
    DW_AT_high_pc      DW_FORM_data4
    DW_AT_frame_base   DW_FORM_exprloc
    DW_AT_GNU_all_tail_call_sites DW_FORM_flag_present
    DW_AT_sibling      DW_FORM_ref4
    DW_AT value: 0     DW_FORM value: 0
   6      DW_TAG_formal_parameter    [no children]
    DW_AT_name         DW_FORM_strp
    DW_AT_decl_file    DW_FORM_data1
    DW_AT_decl_line    DW_FORM_data1
    DW_AT_decl_column  DW_FORM_data1
    DW_AT_type         DW_FORM_ref4
    DW_AT_location     DW_FORM_exprloc
    DW_AT value: 0     DW_FORM value: 0
   7      DW_TAG_variable    [no children]
    DW_AT_name         DW_FORM_string
    DW_AT_decl_file    DW_FORM_data1
    DW_AT_decl_line    DW_FORM_data1
    DW_AT_decl_column  DW_FORM_data1
    DW_AT_type         DW_FORM_ref4
    DW_AT_location     DW_FORM_exprloc
    DW_AT value: 0     DW_FORM value: 0
   8      DW_TAG_subprogram    [has children]
    DW_AT_external     DW_FORM_flag_present
    DW_AT_name         DW_FORM_strp
    DW_AT_decl_file    DW_FORM_data1
    DW_AT_decl_line    DW_FORM_data1
    DW_AT_decl_column  DW_FORM_data1
    DW_AT_prototyped   DW_FORM_flag_present
    DW_AT_low_pc       DW_FORM_addr
    DW_AT_high_pc      DW_FORM_data4
    DW_AT_frame_base   DW_FORM_exprloc
    DW_AT_GNU_all_call_sites DW_FORM_flag_present
    DW_AT_sibling      DW_FORM_ref4
    DW_AT value: 0     DW_FORM value: 0
   9      DW_TAG_formal_parameter    [no children]
    DW_AT_name         DW_FORM_string
    DW_AT_decl_file    DW_FORM_data1
    DW_AT_decl_line    DW_FORM_data1
    DW_AT_decl_column  DW_FORM_data1
    DW_AT_type         DW_FORM_ref4
    DW_AT_location     DW_FORM_exprloc
    DW_AT value: 0     DW_FORM value: 0
   10      DW_TAG_subprogram    [no children]
    DW_AT_external     DW_FORM_flag_present
    DW_AT_name         DW_FORM_strp
    DW_AT_decl_file    DW_FORM_data1
    DW_AT_decl_line    DW_FORM_data1
    DW_AT_decl_column  DW_FORM_data1
    DW_AT_type         DW_FORM_ref4
    DW_AT_low_pc       DW_FORM_addr
    DW_AT_high_pc      DW_FORM_data4
    DW_AT_frame_base   DW_FORM_exprloc
    DW_AT_GNU_all_call_sites DW_FORM_flag_present
    DW_AT value: 0     DW_FORM value: 0
   11      DW_TAG_subprogram    [no children]
    DW_AT_external     DW_FORM_flag_present
    DW_AT_name         DW_FORM_strp
    DW_AT_decl_file    DW_FORM_data1
    DW_AT_decl_line    DW_FORM_data1
    DW_AT_decl_column  DW_FORM_data1
    DW_AT_low_pc       DW_FORM_addr
    DW_AT_high_pc      DW_FORM_data4
    DW_AT_frame_base   DW_FORM_exprloc
    DW_AT_GNU_all_call_sites DW_FORM_flag_present
    DW_AT value: 0     DW_FORM value: 0
   12      DW_TAG_subprogram    [has children]
    DW_AT_external     DW_FORM_flag_present
    DW_AT_name         DW_FORM_strp
    DW_AT_decl_file    DW_FORM_data1
    DW_AT_decl_line    DW_FORM_data1
    DW_AT_decl_column  DW_FORM_data1
    DW_AT_prototyped   DW_FORM_flag_present
    DW_AT_type         DW_FORM_ref4
    DW_AT_low_pc       DW_FORM_addr
    DW_AT_high_pc      DW_FORM_data4
    DW_AT_frame_base   DW_FORM_exprloc
    DW_AT_GNU_all_call_sites DW_FORM_flag_present
    DW_AT_sibling      DW_FORM_ref4
    DW_AT value: 0     DW_FORM value: 0
   13      DW_TAG_variable    [no children]
    DW_AT_name         DW_FORM_strp
    DW_AT_decl_file    DW_FORM_data1
    DW_AT_decl_line    DW_FORM_data1
    DW_AT_decl_column  DW_FORM_data1
    DW_AT_type         DW_FORM_ref4
    DW_AT_location     DW_FORM_exprloc
    DW_AT value: 0     DW_FORM value: 0
   14      DW_TAG_subprogram    [has children]
    DW_AT_external     DW_FORM_flag_present
    DW_AT_name         DW_FORM_strp
    DW_AT_decl_file    DW_FORM_data1
    DW_AT_decl_line    DW_FORM_data1
    DW_AT_decl_column  DW_FORM_data1
    DW_AT_prototyped   DW_FORM_flag_present
    DW_AT_type         DW_FORM_ref4
    DW_AT_low_pc       DW_FORM_addr
    DW_AT_high_pc      DW_FORM_data4
    DW_AT_frame_base   DW_FORM_exprloc
    DW_AT_GNU_all_call_sites DW_FORM_flag_present
    DW_AT value: 0     DW_FORM value: 0
  Number TAG (0x3d1)
   1      DW_TAG_compile_unit    [has children]
    DW_AT_producer     DW_FORM_strp
    DW_AT_language     DW_FORM_data1
    DW_AT_name         DW_FORM_strp
    DW_AT_comp_dir     DW_FORM_strp
    DW_AT_ranges       DW_FORM_sec_offset
    DW_AT_low_pc       DW_FORM_addr
    DW_AT_stmt_list    DW_FORM_sec_offset
    DW_AT value: 0     DW_FORM value: 0
   2      DW_TAG_base_type    [no children]
    DW_AT_byte_size    DW_FORM_data1
    DW_AT_encoding     DW_FORM_data1
    DW_AT_name         DW_FORM_strp
    DW_AT value: 0     DW_FORM value: 0
   3      DW_TAG_subprogram    [has children]
    DW_AT_external     DW_FORM_flag_present
    DW_AT_name         DW_FORM_strp
    DW_AT_decl_file    DW_FORM_data1
    DW_AT_decl_line    DW_FORM_data1
    DW_AT_decl_column  DW_FORM_data1
    DW_AT_prototyped   DW_FORM_flag_present
    DW_AT_low_pc       DW_FORM_addr
    DW_AT_high_pc      DW_FORM_data4
    DW_AT_frame_base   DW_FORM_exprloc
    DW_AT_GNU_all_tail_call_sites DW_FORM_flag_present
    DW_AT_sibling      DW_FORM_ref4
    DW_AT value: 0     DW_FORM value: 0
   4      DW_TAG_formal_parameter    [no children]
    DW_AT_name         DW_FORM_string
    DW_AT_decl_file    DW_FORM_data1
    DW_AT_decl_line    DW_FORM_data1
    DW_AT_decl_column  DW_FORM_data1
    DW_AT_type         DW_FORM_ref4
    DW_AT_location     DW_FORM_exprloc
    DW_AT value: 0     DW_FORM value: 0
   5      DW_TAG_pointer_type    [no children]
    DW_AT_byte_size    DW_FORM_data1
    DW_AT_type         DW_FORM_ref4
    DW_AT value: 0     DW_FORM value: 0
   6      DW_TAG_subprogram    [no children]
    DW_AT_external     DW_FORM_flag_present
    DW_AT_name         DW_FORM_strp
    DW_AT_decl_file    DW_FORM_data1
    DW_AT_decl_line    DW_FORM_data1
    DW_AT_decl_column  DW_FORM_data1
    DW_AT_low_pc       DW_FORM_addr
    DW_AT_high_pc      DW_FORM_data4
    DW_AT_frame_base   DW_FORM_exprloc
    DW_AT_GNU_all_tail_call_sites DW_FORM_flag_present
    DW_AT value: 0     DW_FORM value: 0
   7      DW_TAG_subprogram    [has children]
    DW_AT_external     DW_FORM_flag_present
    DW_AT_name         DW_FORM_strp
    DW_AT_decl_file    DW_FORM_data1
    DW_AT_decl_line    DW_FORM_data1
    DW_AT_decl_column  DW_FORM_data1
    DW_AT_type         DW_FORM_ref4
    DW_AT_low_pc       DW_FORM_addr
    DW_AT_high_pc      DW_FORM_data4
    DW_AT_frame_base   DW_FORM_exprloc
    DW_AT_GNU_all_tail_call_sites DW_FORM_flag_present
    DW_AT_sibling      DW_FORM_ref4
    DW_AT value: 0     DW_FORM value: 0
   8      DW_TAG_variable    [no children]
    DW_AT_name         DW_FORM_strp
    DW_AT_decl_file    DW_FORM_data1
    DW_AT_decl_line    DW_FORM_data1
    DW_AT_decl_column  DW_FORM_data1
    DW_AT_type         DW_FORM_ref4
    DW_AT_location     DW_FORM_exprloc
    DW_AT value: 0     DW_FORM value: 0
   9      DW_TAG_array_type    [has children]
    DW_AT_type         DW_FORM_ref4
    DW_AT_sibling      DW_FORM_ref4
    DW_AT value: 0     DW_FORM value: 0
   10      DW_TAG_subrange_type    [no children]
    DW_AT_type         DW_FORM_ref4
    DW_AT_upper_bound  DW_FORM_data1
    DW_AT value: 0     DW_FORM value: 0
   11      DW_TAG_subprogram    [no children]
    DW_AT_external     DW_FORM_flag_present
    DW_AT_name         DW_FORM_strp
    DW_AT_decl_file    DW_FORM_data1
    DW_AT_decl_line    DW_FORM_data1
    DW_AT_decl_column  DW_FORM_data1
    DW_AT_type         DW_FORM_ref4
    DW_AT_low_pc       DW_FORM_addr
    DW_AT_high_pc      DW_FORM_data4
    DW_AT_frame_base   DW_FORM_exprloc
    DW_AT_GNU_all_tail_call_sites DW_FORM_flag_present
    DW_AT value: 0     DW_FORM value: 0
   12      DW_TAG_subprogram    [has children]
    DW_AT_external     DW_FORM_flag_present
    DW_AT_name         DW_FORM_strp
    DW_AT_decl_file    DW_FORM_data1
    DW_AT_decl_line    DW_FORM_data1
    DW_AT_decl_column  DW_FORM_data1
    DW_AT_prototyped   DW_FORM_flag_present
    DW_AT_low_pc       DW_FORM_addr
    DW_AT_high_pc      DW_FORM_data4
    DW_AT_frame_base   DW_FORM_exprloc
    DW_AT_GNU_all_tail_call_sites DW_FORM_flag_present
    DW_AT value: 0     DW_FORM value: 0

Contents of the .debug_aranges section:

  Length:                   44
  Version:                  2
  Offset into .debug_info:  0x0
  Pointer Size:             4
  Segment Size:             0

    Address    Length
    0000026c 00000090 
    000002fc 00000024 
    00000000 0000001c 
    00000000 00000000 
  Length:                   44
  Version:                  2
  Offset into .debug_info:  0x115
  Pointer Size:             4
  Segment Size:             0

    Address    Length
    00000320 0000002c 
    0000034c 00000068 
    000003b4 00000058 
    00000000 00000000 
  Length:                   68
  Version:                  2
  Offset into .debug_info:  0x247
  Pointer Size:             4
  Segment Size:             0

    Address    Length
    0000040c 00000054 
    00000468 00000006 
    0000046e 00000006 
    00000474 00000006 
    00000000 00000006 
    0000047a 00000006 
    00000000 00000000 
  Length:                   28
  Version:                  2
  Offset into .debug_info:  0x3de
  Pointer Size:             4
  Segment Size:             0

    Address    Length
    00000480 0000005c 
    00000000 00000000 
  Length:                   100
  Version:                  2
  Offset into .debug_info:  0x474
  Pointer Size:             4
  Segment Size:             0

    Address    Length
    000004dc 0000002c 
    00000508 00000022 
    0000052a 00000050 
    00000000 00000020 
    0000057c 00000020 
    00000000 00000020 
    00000000 00000018 
    0000059c 00000020 
    000005bc 00000020 
    000005dc 000000f8 
    00000000 00000000 
  Length:                   68
  Version:                  2
  Offset into .debug_info:  0x6a0
  Pointer Size:             4
  Segment Size:             0

    Address    Length
    000006d4 00000026 
    00000000 0000001a 
    00000000 00000048 
    000006fa 00000016 
    00000710 0000002a 
    0000073a 0000001c 
    00000000 00000000 

Contents of the .debug_ranges section:

    Offset   Begin    End
    00000000 0000026c 000002fc 
    00000000 000002fc 00000320 
    00000000 00000001 00000001 (start == end)
    00000000 <End of list>
    00000020 00000320 0000034c 
    00000020 0000034c 000003b4 
    00000020 000003b4 0000040c 
    00000020 <End of list>
    00000040 0000040c 00000460 
    00000040 00000468 0000046e 
    00000040 0000046e 00000474 
    00000040 00000474 0000047a 
    00000040 00000001 00000001 (start == end)
    00000040 0000047a 00000480 
    00000040 <End of list>
    00000078 00000480 000004dc 
    00000078 <End of list>
    00000088 000004dc 00000508 
    00000088 00000508 0000052a 
    00000088 0000052a 0000057a 
    00000088 00000001 00000001 (start == end)
    00000088 0000057c 0000059c 
    00000088 00000001 00000001 (start == end)
    00000088 00000001 00000001 (start == end)
    00000088 0000059c 000005bc 
    00000088 000005bc 000005dc 
    00000088 000005dc 000006d4 
    00000088 <End of list>
    000000e0 000006d4 000006fa 
    000000e0 00000001 00000001 (start == end)
    000000e0 00000001 00000001 (start == end)
    000000e0 000006fa 00000710 
    000000e0 00000710 0000073a 
    000000e0 0000073a 00000756 
    000000e0 <End of list>

Raw dump of debug contents of section .debug_line:

  Offset:                      0x0
  Length:                      404
  DWARF Version:               3
  Prologue Length:             262
  Minimum Instruction Length:  2
  Initial value of 'is_stmt':  1
  Line Base:                   -5
  Line Range:                  14
  Opcode Base:                 13

 Opcodes:
  Opcode 1 has 0 args
  Opcode 2 has 1 arg
  Opcode 3 has 1 arg
  Opcode 4 has 1 arg
  Opcode 5 has 1 arg
  Opcode 6 has 0 args
  Opcode 7 has 0 args
  Opcode 8 has 0 args
  Opcode 9 has 1 arg
  Opcode 10 has 0 args
  Opcode 11 has 0 args
  Opcode 12 has 1 arg

 The Directory Table (offset 0x1b):
  1	/nix/store/i8p069hg9yhdqp764gaqs22wga33xnyl-gcc-arm-embedded-9.3.1/arm-none-eabi/include/machine
  2	/nix/store/i8p069hg9yhdqp764gaqs22wga33xnyl-gcc-arm-embedded-9.3.1/arm-none-eabi/include/sys

 The File Name Table (offset 0xda):
  Entry	Dir	Time	Size	Name
  1	0	0	0	gpio.c
  2	1	0	0	_default_types.h
  3	2	0	0	_stdint.h
  4	0	0	0	gpio.h

 Line Number Statements:
  [0x00000110]  Set column to 19
  [0x00000112]  Extended opcode 2: set Address to 0x26c
  [0x00000119]  Special opcode 8: advance Address by 0 to 0x26c and Line by 3 to 4
  [0x0000011a]  Set column to 3
  [0x0000011c]  Special opcode 35: advance Address by 4 to 0x270 and Line by 2 to 6
  [0x0000011d]  Set column to 18
  [0x0000011f]  Special opcode 19: advance Address by 2 to 0x272 and Line by 0 to 6
  [0x00000120]  Set column to 3
  [0x00000122]  Special opcode 35: advance Address by 4 to 0x276 and Line by 2 to 8
  [0x00000123]  Set column to 20
  [0x00000125]  Special opcode 19: advance Address by 2 to 0x278 and Line by 0 to 8
  [0x00000126]  Set column to 3
  [0x00000128]  Special opcode 35: advance Address by 4 to 0x27c and Line by 2 to 10
  [0x00000129]  Set column to 20
  [0x0000012b]  Special opcode 19: advance Address by 2 to 0x27e and Line by 0 to 10
  [0x0000012c]  Set column to 3
  [0x0000012e]  Special opcode 35: advance Address by 4 to 0x282 and Line by 2 to 12
  [0x0000012f]  Set column to 20
  [0x00000131]  Special opcode 19: advance Address by 2 to 0x284 and Line by 0 to 12
  [0x00000132]  Set column to 14
  [0x00000134]  Special opcode 36: advance Address by 4 to 0x288 and Line by 3 to 15
  [0x00000135]  Set column to 18
  [0x00000137]  Special opcode 90: advance Address by 12 to 0x294 and Line by 1 to 16
  [0x00000138]  Set column to 30
  [0x0000013a]  Special opcode 33: advance Address by 4 to 0x298 and Line by 0 to 16
  [0x0000013b]  Set column to 3
  [0x0000013d]  Special opcode 33: advance Address by 4 to 0x29c and Line by 0 to 16
  [0x0000013e]  Set column to 44
  [0x00000140]  Special opcode 19: advance Address by 2 to 0x29e and Line by 0 to 16
  [0x00000141]  Set column to 15
  [0x00000143]  Special opcode 33: advance Address by 4 to 0x2a2 and Line by 0 to 16
  [0x00000144]  Set column to 19
  [0x00000146]  Special opcode 20: advance Address by 2 to 0x2a4 and Line by 1 to 17
  [0x00000147]  Set column to 20
  [0x00000149]  Special opcode 90: advance Address by 12 to 0x2b0 and Line by 1 to 18
  [0x0000014a]  Set column to 3
  [0x0000014c]  Special opcode 91: advance Address by 12 to 0x2bc and Line by 2 to 20
  [0x0000014d]  Set column to 19
  [0x0000014f]  Special opcode 19: advance Address by 2 to 0x2be and Line by 0 to 20
  [0x00000150]  Set column to 3
  [0x00000152]  Special opcode 34: advance Address by 4 to 0x2c2 and Line by 1 to 21
  [0x00000153]  Set column to 20
  [0x00000155]  Special opcode 19: advance Address by 2 to 0x2c4 and Line by 0 to 21
  [0x00000156]  Set column to 1
  [0x00000158]  Special opcode 34: advance Address by 4 to 0x2c8 and Line by 1 to 22
  [0x00000159]  Advance PC by 52 to 0x2fc
  [0x0000015b]  Extended opcode 1: End of Sequence

  [0x0000015e]  Set column to 39
  [0x00000160]  Extended opcode 2: set Address to 0x2fc
  [0x00000167]  Advance Line by 23 to 24
  [0x00000169]  Copy
  [0x0000016a]  Set column to 67
  [0x0000016c]  Special opcode 75: advance Address by 10 to 0x306 and Line by 0 to 24
  [0x0000016d]  Set column to 41
  [0x0000016f]  Special opcode 33: advance Address by 4 to 0x30a and Line by 0 to 24
  [0x00000170]  Set column to 59
  [0x00000172]  Special opcode 19: advance Address by 2 to 0x30c and Line by 0 to 24
  [0x00000173]  Set column to 73
  [0x00000175]  Special opcode 19: advance Address by 2 to 0x30e and Line by 0 to 24
  [0x00000176]  Advance PC by 18 to 0x320
  [0x00000178]  Extended opcode 1: End of Sequence

  [0x0000017b]  Set column to 26
  [0x0000017d]  Extended opcode 2: set Address to 0x0
  [0x00000184]  Advance Line by 25 to 26
  [0x00000186]  Copy
  [0x00000187]  Set column to 37
  [0x00000189]  Special opcode 33: advance Address by 4 to 0x4 and Line by 0 to 26
  [0x0000018a]  Set column to 35
  [0x0000018c]  Special opcode 33: advance Address by 4 to 0x8 and Line by 0 to 26
  [0x0000018d]  Set column to 56
  [0x0000018f]  Special opcode 19: advance Address by 2 to 0xa and Line by 0 to 26
  [0x00000190]  Set column to 70
  [0x00000192]  Special opcode 33: advance Address by 4 to 0xe and Line by 0 to 26
  [0x00000193]  Advance PC by 14 to 0x1c
  [0x00000195]  Extended opcode 1: End of Sequence


  Offset:                      0x198
  Length:                      435
  DWARF Version:               3
  Prologue Length:             276
  Minimum Instruction Length:  2
  Initial value of 'is_stmt':  1
  Line Base:                   -5
  Line Range:                  14
  Opcode Base:                 13

 Opcodes:
  Opcode 1 has 0 args
  Opcode 2 has 1 arg
  Opcode 3 has 1 arg
  Opcode 4 has 1 arg
  Opcode 5 has 1 arg
  Opcode 6 has 0 args
  Opcode 7 has 0 args
  Opcode 8 has 0 args
  Opcode 9 has 1 arg
  Opcode 10 has 0 args
  Opcode 11 has 0 args
  Opcode 12 has 1 arg

 The Directory Table (offset 0x1b3):
  1	/nix/store/i8p069hg9yhdqp764gaqs22wga33xnyl-gcc-arm-embedded-9.3.1/arm-none-eabi/include/machine
  2	/nix/store/i8p069hg9yhdqp764gaqs22wga33xnyl-gcc-arm-embedded-9.3.1/arm-none-eabi/include/sys

 The File Name Table (offset 0x272):
  Entry	Dir	Time	Size	Name
  1	0	0	0	main.c
  2	0	0	0	emp_type.h
  3	1	0	0	_default_types.h
  4	2	0	0	_stdint.h
  5	0	0	0	gpio.h

 Line Number Statements:
  [0x000002b6]  Set column to 24
  [0x000002b8]  Extended opcode 2: set Address to 0x320
  [0x000002bf]  Advance Line by 12 to 13
  [0x000002c1]  Copy
  [0x000002c2]  Set column to 9
  [0x000002c4]  Special opcode 34: advance Address by 4 to 0x324 and Line by 1 to 14
  [0x000002c5]  Set column to 8
  [0x000002c7]  Special opcode 47: advance Address by 6 to 0x32a and Line by 0 to 14
  [0x000002c8]  Set column to 21
  [0x000002ca]  Extended opcode 4: set Discriminator to 1
  [0x000002ce]  Special opcode 33: advance Address by 4 to 0x32e and Line by 0 to 14
  [0x000002cf]  Set column to 1
  [0x000002d1]  Special opcode 104: advance Address by 14 to 0x33c and Line by 1 to 15
  [0x000002d2]  Advance PC by 16 to 0x34c
  [0x000002d4]  Extended opcode 1: End of Sequence

  [0x000002d7]  Set column to 14
  [0x000002d9]  Extended opcode 2: set Address to 0x34c
  [0x000002e0]  Advance Line by 18 to 19
  [0x000002e2]  Copy
  [0x000002e3]  Set column to 5
  [0x000002e5]  Special opcode 34: advance Address by 4 to 0x350 and Line by 1 to 20
  [0x000002e6]  Special opcode 34: advance Address by 4 to 0x354 and Line by 1 to 21
  [0x000002e7]  Special opcode 48: advance Address by 6 to 0x35a and Line by 1 to 22
  [0x000002e8]  Special opcode 34: advance Address by 4 to 0x35e and Line by 1 to 23
  [0x000002e9]  Special opcode 36: advance Address by 4 to 0x362 and Line by 3 to 26
  [0x000002ea]  Set column to 16
  [0x000002ec]  Special opcode 19: advance Address by 2 to 0x364 and Line by 0 to 26
  [0x000002ed]  Set column to 5
  [0x000002ef]  Special opcode 34: advance Address by 4 to 0x368 and Line by 1 to 27
  [0x000002f0]  Set column to 16
  [0x000002f2]  Special opcode 19: advance Address by 2 to 0x36a and Line by 0 to 27
  [0x000002f3]  Set column to 5
  [0x000002f5]  Special opcode 36: advance Address by 4 to 0x36e and Line by 3 to 30
  [0x000002f6]  Set column to 22
  [0x000002f8]  Special opcode 19: advance Address by 2 to 0x370 and Line by 0 to 30
  [0x000002f9]  Set column to 24
  [0x000002fb]  Special opcode 36: advance Address by 4 to 0x374 and Line by 3 to 33
  [0x000002fc]  Set column to 22
  [0x000002fe]  Special opcode 92: advance Address by 12 to 0x380 and Line by 3 to 36
  [0x000002ff]  Set column to 24
  [0x00000301]  Special opcode 92: advance Address by 12 to 0x38c and Line by 3 to 39
  [0x00000302]  Set column to 1
  [0x00000304]  Special opcode 91: advance Address by 12 to 0x398 and Line by 2 to 41
  [0x00000305]  Advance PC by 28 to 0x3b4
  [0x00000307]  Extended opcode 1: End of Sequence

  [0x0000030a]  Set column to 16
  [0x0000030c]  Extended opcode 2: set Address to 0x3b4
  [0x00000313]  Advance Line by 42 to 43
  [0x00000315]  Copy
  [0x00000316]  Set column to 5
  [0x00000318]  Special opcode 34: advance Address by 4 to 0x3b8 and Line by 1 to 44
  [0x00000319]  Set column to 9
  [0x0000031b]  Special opcode 36: advance Address by 4 to 0x3bc and Line by 3 to 47
  [0x0000031c]  Special opcode 48: advance Address by 6 to 0x3c2 and Line by 1 to 48
  [0x0000031d]  Set column to 15
  [0x0000031f]  Special opcode 48: advance Address by 6 to 0x3c8 and Line by 1 to 49
  [0x00000320]  Special opcode 62: advance Address by 8 to 0x3d0 and Line by 1 to 50
  [0x00000321]  Set column to 16
  [0x00000323]  Extended opcode 4: set Discriminator to 1
  [0x00000327]  Special opcode 19: advance Address by 2 to 0x3d2 and Line by 0 to 50
  [0x00000328]  Set column to 15
  [0x0000032a]  Extended opcode 4: set Discriminator to 1
  [0x0000032e]  Special opcode 47: advance Address by 6 to 0x3d8 and Line by 0 to 50
  [0x0000032f]  Set column to 9
  [0x00000331]  Special opcode 34: advance Address by 4 to 0x3dc and Line by 1 to 51
  [0x00000332]  Special opcode 48: advance Address by 6 to 0x3e2 and Line by 1 to 52
  [0x00000333]  Set column to 15
  [0x00000335]  Special opcode 48: advance Address by 6 to 0x3e8 and Line by 1 to 53
  [0x00000336]  Special opcode 62: advance Address by 8 to 0x3f0 and Line by 1 to 54
  [0x00000337]  Set column to 16
  [0x00000339]  Extended opcode 4: set Discriminator to 1
  [0x0000033d]  Special opcode 19: advance Address by 2 to 0x3f2 and Line by 0 to 54
  [0x0000033e]  Set column to 15
  [0x00000340]  Extended opcode 4: set Discriminator to 1
  [0x00000344]  Special opcode 47: advance Address by 6 to 0x3f8 and Line by 0 to 54
  [0x00000345]  Set column to 9
  [0x00000347]  Advance Line by -7 to 47
  [0x00000349]  Special opcode 33: advance Address by 4 to 0x3fc and Line by 0 to 47
  [0x0000034a]  Advance PC by 16 to 0x40c
  [0x0000034c]  Extended opcode 1: End of Sequence


  Offset:                      0x34f
  Length:                      220
  DWARF Version:               3
  Prologue Length:             36
  Minimum Instruction Length:  2
  Initial value of 'is_stmt':  1
  Line Base:                   -5
  Line Range:                  14
  Opcode Base:                 13

 Opcodes:
  Opcode 1 has 0 args
  Opcode 2 has 1 arg
  Opcode 3 has 1 arg
  Opcode 4 has 1 arg
  Opcode 5 has 1 arg
  Opcode 6 has 0 args
  Opcode 7 has 0 args
  Opcode 8 has 0 args
  Opcode 9 has 1 arg
  Opcode 10 has 0 args
  Opcode 11 has 0 args
  Opcode 12 has 1 arg

 The Directory Table is empty.

 The File Name Table (offset 0x36b):
  Entry	Dir	Time	Size	Name
  1	0	0	0	startup_gcc.c

 Line Number Statements:
  [0x0000037d]  Set column to 21
  [0x0000037f]  Extended opcode 2: set Address to 0x40c
  [0x00000386]  Advance Line by 226 to 227
  [0x00000389]  Copy
  [0x0000038a]  Set column to 10
  [0x0000038c]  Special opcode 53: advance Address by 6 to 0x412 and Line by 6 to 233
  [0x0000038d]  Set column to 16
  [0x0000038f]  Special opcode 34: advance Address by 4 to 0x416 and Line by 1 to 234
  [0x00000390]  Set column to 3
  [0x00000392]  Special opcode 33: advance Address by 4 to 0x41a and Line by 0 to 234
  [0x00000393]  Set column to 25
  [0x00000395]  Special opcode 20: advance Address by 2 to 0x41c and Line by 1 to 235
  [0x00000396]  Set column to 13
  [0x00000398]  Special opcode 47: advance Address by 6 to 0x422 and Line by 0 to 235
  [0x00000399]  Set column to 18
  [0x0000039b]  Special opcode 47: advance Address by 6 to 0x428 and Line by 0 to 235
  [0x0000039c]  Set column to 16
  [0x0000039e]  Special opcode 19: advance Address by 2 to 0x42a and Line by 0 to 235
  [0x0000039f]  Set column to 3
  [0x000003a1]  Extended opcode 4: set Discriminator to 1
  [0x000003a5]  Special opcode 18: advance Address by 2 to 0x42c and Line by -1 to 234
  [0x000003a6]  Special opcode 68: advance Address by 8 to 0x434 and Line by 7 to 241
  [0x000003a7]  Advance Line by 13 to 254
  [0x000003a9]  Special opcode 131: advance Address by 18 to 0x446 and Line by 0 to 254
  [0x000003aa]  Set column to 1
  [0x000003ac]  Special opcode 34: advance Address by 4 to 0x44a and Line by 1 to 255
  [0x000003ad]  Advance PC by 30 to 0x468
  [0x000003af]  Extended opcode 1: End of Sequence

  [0x000003b2]  Set column to 25
  [0x000003b4]  Extended opcode 2: set Address to 0x468
  [0x000003bb]  Advance Line by 263 to 264
  [0x000003be]  Copy
  [0x000003bf]  Set column to 9
  [0x000003c1]  Extended opcode 4: set Discriminator to 1
  [0x000003c5]  Special opcode 37: advance Address by 4 to 0x46c and Line by 4 to 268
  [0x000003c6]  Advance PC by 2 to 0x46e
  [0x000003c8]  Extended opcode 1: End of Sequence

  [0x000003cb]  Set column to 28
  [0x000003cd]  Extended opcode 2: set Address to 0x46e
  [0x000003d4]  Advance Line by 278 to 279
  [0x000003d7]  Copy
  [0x000003d8]  Set column to 9
  [0x000003da]  Extended opcode 4: set Discriminator to 1
  [0x000003de]  Special opcode 37: advance Address by 4 to 0x472 and Line by 4 to 283
  [0x000003df]  Advance PC by 2 to 0x474
  [0x000003e1]  Extended opcode 1: End of Sequence

  [0x000003e4]  Set column to 37
  [0x000003e6]  Extended opcode 2: set Address to 0x474
  [0x000003ed]  Advance Line by 293 to 294
  [0x000003f0]  Copy
  [0x000003f1]  Set column to 9
  [0x000003f3]  Extended opcode 4: set Discriminator to 1
  [0x000003f7]  Special opcode 37: advance Address by 4 to 0x478 and Line by 4 to 298
  [0x000003f8]  Advance PC by 2 to 0x47a
  [0x000003fa]  Extended opcode 1: End of Sequence

  [0x000003fd]  Set column to 50
  [0x000003ff]  Extended opcode 2: set Address to 0x0
  [0x00000406]  Advance Line by 307 to 308
  [0x00000409]  Copy
  [0x0000040a]  Set column to 9
  [0x0000040c]  Extended opcode 4: set Discriminator to 1
  [0x00000410]  Special opcode 34: advance Address by 4 to 0x4 and Line by 1 to 309
  [0x00000411]  Advance PC by 2 to 0x6
  [0x00000413]  Extended opcode 1: End of Sequence

  [0x00000416]  Set column to 48
  [0x00000418]  Extended opcode 2: set Address to 0x47a
  [0x0000041f]  Advance Line by 311 to 312
  [0x00000422]  Copy
  [0x00000423]  Set column to 9
  [0x00000425]  Extended opcode 4: set Discriminator to 1
  [0x00000429]  Special opcode 34: advance Address by 4 to 0x47e and Line by 1 to 313
  [0x0000042a]  Advance PC by 2 to 0x480
  [0x0000042c]  Extended opcode 1: End of Sequence


  Offset:                      0x42f
  Length:                      299
  DWARF Version:               3
  Prologue Length:             255
  Minimum Instruction Length:  2
  Initial value of 'is_stmt':  1
  Line Base:                   -5
  Line Range:                  14
  Opcode Base:                 13

 Opcodes:
  Opcode 1 has 0 args
  Opcode 2 has 1 arg
  Opcode 3 has 1 arg
  Opcode 4 has 1 arg
  Opcode 5 has 1 arg
  Opcode 6 has 0 args
  Opcode 7 has 0 args
  Opcode 8 has 0 args
  Opcode 9 has 1 arg
  Opcode 10 has 0 args
  Opcode 11 has 0 args
  Opcode 12 has 1 arg

 The Directory Table (offset 0x44a):
  1	/nix/store/i8p069hg9yhdqp764gaqs22wga33xnyl-gcc-arm-embedded-9.3.1/arm-none-eabi/include/machine
  2	/nix/store/i8p069hg9yhdqp764gaqs22wga33xnyl-gcc-arm-embedded-9.3.1/arm-none-eabi/include/sys

 The File Name Table (offset 0x509):
  Entry	Dir	Time	Size	Name
  1	0	0	0	systick.c
  2	1	0	0	_default_types.h
  3	2	0	0	_stdint.h

 Line Number Statements:
  [0x00000538]  Set column to 21
  [0x0000053a]  Extended opcode 2: set Address to 0x480
  [0x00000541]  Special opcode 7: advance Address by 0 to 0x480 and Line by 2 to 3
  [0x00000542]  Set column to 18
  [0x00000544]  Special opcode 36: advance Address by 4 to 0x484 and Line by 3 to 6
  [0x00000545]  Set column to 3
  [0x00000547]  Special opcode 92: advance Address by 12 to 0x490 and Line by 3 to 9
  [0x00000548]  Set column to 21
  [0x0000054a]  Special opcode 19: advance Address by 2 to 0x492 and Line by 0 to 9
  [0x0000054b]  Set column to 3
  [0x0000054d]  Special opcode 49: advance Address by 6 to 0x498 and Line by 2 to 11
  [0x0000054e]  Set column to 20
  [0x00000550]  Special opcode 19: advance Address by 2 to 0x49a and Line by 0 to 11
  [0x00000551]  Set column to 18
  [0x00000553]  Special opcode 50: advance Address by 6 to 0x4a0 and Line by 3 to 14
  [0x00000554]  Special opcode 92: advance Address by 12 to 0x4ac and Line by 3 to 17
  [0x00000555]  Special opcode 92: advance Address by 12 to 0x4b8 and Line by 3 to 20
  [0x00000556]  Set column to 1
  [0x00000558]  Special opcode 90: advance Address by 12 to 0x4c4 and Line by 1 to 21
  [0x00000559]  Advance PC by 24 to 0x4dc
  [0x0000055b]  Extended opcode 1: End of Sequence


  Offset:                      0x55e
  Length:                      630
  DWARF Version:               3
  Prologue Length:             267
  Minimum Instruction Length:  2
  Initial value of 'is_stmt':  1
  Line Base:                   -5
  Line Range:                  14
  Opcode Base:                 13

 Opcodes:
  Opcode 1 has 0 args
  Opcode 2 has 1 arg
  Opcode 3 has 1 arg
  Opcode 4 has 1 arg
  Opcode 5 has 1 arg
  Opcode 6 has 0 args
  Opcode 7 has 0 args
  Opcode 8 has 0 args
  Opcode 9 has 1 arg
  Opcode 10 has 0 args
  Opcode 11 has 0 args
  Opcode 12 has 1 arg

 The Directory Table (offset 0x579):
  1	/nix/store/i8p069hg9yhdqp764gaqs22wga33xnyl-gcc-arm-embedded-9.3.1/arm-none-eabi/include/machine
  2	/nix/store/i8p069hg9yhdqp764gaqs22wga33xnyl-gcc-arm-embedded-9.3.1/arm-none-eabi/include/sys

 The File Name Table (offset 0x638):
  Entry	Dir	Time	Size	Name
  1	0	0	0	uart0.c
  2	1	0	0	_default_types.h
  3	2	0	0	_stdint.h
  4	0	0	0	emp_type.h

 Line Number Statements:
  [0x00000673]  Set column to 1
  [0x00000675]  Extended opcode 2: set Address to 0x4dc
  [0x0000067c]  Advance Line by 44 to 45
  [0x0000067e]  Copy
  [0x0000067f]  Set column to 5
  [0x00000681]  Special opcode 76: advance Address by 10 to 0x4e6 and Line by 1 to 46
  [0x00000682]  Set column to 29
  [0x00000684]  Extended opcode 4: set Discriminator to 1
  [0x00000688]  Special opcode 47: advance Address by 6 to 0x4ec and Line by 0 to 46
  [0x00000689]  Set column to 17
  [0x0000068b]  Special opcode 48: advance Address by 6 to 0x4f2 and Line by 1 to 47
  [0x0000068c]  Set column to 12
  [0x0000068e]  Special opcode 34: advance Address by 4 to 0x4f6 and Line by 1 to 48
  [0x0000068f]  Set column to 35
  [0x00000691]  Special opcode 19: advance Address by 2 to 0x4f8 and Line by 0 to 48
  [0x00000692]  Set column to 41
  [0x00000694]  Special opcode 19: advance Address by 2 to 0x4fa and Line by 0 to 48
  [0x00000695]  Set column to 1
  [0x00000697]  Special opcode 20: advance Address by 2 to 0x4fc and Line by 1 to 49
  [0x00000698]  Advance PC by 12 to 0x508
  [0x0000069a]  Extended opcode 1: End of Sequence

  [0x0000069d]  Set column to 1
  [0x0000069f]  Extended opcode 2: set Address to 0x508
  [0x000006a6]  Advance Line by 59 to 60
  [0x000006a8]  Copy
  [0x000006a9]  Set column to 5
  [0x000006ab]  Special opcode 76: advance Address by 10 to 0x512 and Line by 1 to 61
  [0x000006ac]  Set column to 11
  [0x000006ae]  Special opcode 48: advance Address by 6 to 0x518 and Line by 1 to 62
  [0x000006af]  Set column to 8
  [0x000006b1]  Special opcode 35: advance Address by 4 to 0x51c and Line by 2 to 64
  [0x000006b2]  Set column to 1
  [0x000006b4]  Special opcode 20: advance Address by 2 to 0x51e and Line by 1 to 65
  [0x000006b5]  Advance PC by 12 to 0x52a
  [0x000006b7]  Extended opcode 1: End of Sequence

  [0x000006ba]  Set column to 1
  [0x000006bc]  Extended opcode 2: set Address to 0x52a
  [0x000006c3]  Advance Line by 78 to 79
  [0x000006c6]  Copy
  [0x000006c7]  Set column to 3
  [0x000006c9]  Special opcode 78: advance Address by 10 to 0x534 and Line by 3 to 82
  [0x000006ca]  Set column to 14
  [0x000006cc]  Special opcode 204: advance Address by 28 to 0x550 and Line by 3 to 85
  [0x000006cd]  Set column to 7
  [0x000006cf]  Special opcode 34: advance Address by 4 to 0x554 and Line by 1 to 86
  [0x000006d0]  Set column to 14
  [0x000006d2]  Special opcode 21: advance Address by 2 to 0x556 and Line by 2 to 88
  [0x000006d3]  Set column to 7
  [0x000006d5]  Special opcode 34: advance Address by 4 to 0x55a and Line by 1 to 89
  [0x000006d6]  Set column to 14
  [0x000006d8]  Special opcode 21: advance Address by 2 to 0x55c and Line by 2 to 91
  [0x000006d9]  Set column to 7
  [0x000006db]  Special opcode 34: advance Address by 4 to 0x560 and Line by 1 to 92
  [0x000006dc]  Set column to 14
  [0x000006de]  Special opcode 21: advance Address by 2 to 0x562 and Line by 2 to 94
  [0x000006df]  Set column to 7
  [0x000006e1]  Special opcode 34: advance Address by 4 to 0x566 and Line by 1 to 95
  [0x000006e2]  Set column to 14
  [0x000006e4]  Special opcode 22: advance Address by 2 to 0x568 and Line by 3 to 98
  [0x000006e5]  Set column to 9
  [0x000006e7]  Special opcode 35: advance Address by 4 to 0x56c and Line by 2 to 100
  [0x000006e8]  Set column to 1
  [0x000006ea]  Special opcode 20: advance Address by 2 to 0x56e and Line by 1 to 101
  [0x000006eb]  Advance PC by 12 to 0x57a
  [0x000006ed]  Extended opcode 1: End of Sequence

  [0x000006f0]  Set column to 1
  [0x000006f2]  Extended opcode 2: set Address to 0x0
  [0x000006f9]  Advance Line by 108 to 109
  [0x000006fc]  Copy
  [0x000006fd]  Set column to 17
  [0x000006ff]  Special opcode 34: advance Address by 4 to 0x4 and Line by 1 to 110
  [0x00000700]  Set column to 1
  [0x00000702]  Special opcode 90: advance Address by 12 to 0x10 and Line by 1 to 111
  [0x00000703]  Advance PC by 16 to 0x20
  [0x00000705]  Extended opcode 1: End of Sequence

  [0x00000708]  Set column to 1
  [0x0000070a]  Extended opcode 2: set Address to 0x57c
  [0x00000711]  Advance Line by 118 to 119
  [0x00000714]  Copy
  [0x00000715]  Set column to 17
  [0x00000717]  Special opcode 34: advance Address by 4 to 0x580 and Line by 1 to 120
  [0x00000718]  Set column to 1
  [0x0000071a]  Special opcode 90: advance Address by 12 to 0x58c and Line by 1 to 121
  [0x0000071b]  Advance PC by 16 to 0x59c
  [0x0000071d]  Extended opcode 1: End of Sequence

  [0x00000720]  Set column to 1
  [0x00000722]  Extended opcode 2: set Address to 0x0
  [0x00000729]  Advance Line by 127 to 128
  [0x0000072c]  Copy
  [0x0000072d]  Set column to 11
  [0x0000072f]  Special opcode 34: advance Address by 4 to 0x4 and Line by 1 to 129
  [0x00000730]  Set column to 22
  [0x00000732]  Special opcode 33: advance Address by 4 to 0x8 and Line by 0 to 129
  [0x00000733]  Set column to 1
  [0x00000735]  Special opcode 62: advance Address by 8 to 0x10 and Line by 1 to 130
  [0x00000736]  Advance PC by 16 to 0x20
  [0x00000738]  Extended opcode 1: End of Sequence

  [0x0000073b]  Set column to 1
  [0x0000073d]  Extended opcode 2: set Address to 0x0
  [0x00000744]  Advance Line by 135 to 136
  [0x00000747]  Copy
  [0x00000748]  Set column to 12
  [0x0000074a]  Special opcode 34: advance Address by 4 to 0x4 and Line by 1 to 137
  [0x0000074b]  Set column to 1
  [0x0000074d]  Special opcode 48: advance Address by 6 to 0xa and Line by 1 to 138
  [0x0000074e]  Advance PC by 14 to 0x18
  [0x00000750]  Extended opcode 1: End of Sequence

  [0x00000753]  Set column to 1
  [0x00000755]  Extended opcode 2: set Address to 0x59c
  [0x0000075c]  Advance Line by 143 to 144
  [0x0000075f]  Copy
  [0x00000760]  Set column to 11
  [0x00000762]  Special opcode 34: advance Address by 4 to 0x5a0 and Line by 1 to 145
  [0x00000763]  Set column to 22
  [0x00000765]  Special opcode 33: advance Address by 4 to 0x5a4 and Line by 0 to 145
  [0x00000766]  Set column to 1
  [0x00000768]  Special opcode 62: advance Address by 8 to 0x5ac and Line by 1 to 146
  [0x00000769]  Advance PC by 16 to 0x5bc
  [0x0000076b]  Extended opcode 1: End of Sequence

  [0x0000076e]  Set column to 1
  [0x00000770]  Extended opcode 2: set Address to 0x5bc
  [0x00000777]  Advance Line by 151 to 152
  [0x0000077a]  Copy
  [0x0000077b]  Set column to 3
  [0x0000077d]  Special opcode 76: advance Address by 10 to 0x5c6 and Line by 1 to 153
  [0x0000077e]  Set column to 14
  [0x00000780]  Special opcode 19: advance Address by 2 to 0x5c8 and Line by 0 to 153
  [0x00000781]  Set column to 1
  [0x00000783]  Special opcode 34: advance Address by 4 to 0x5cc and Line by 1 to 154
  [0x00000784]  Advance PC by 16 to 0x5dc
  [0x00000786]  Extended opcode 1: End of Sequence

  [0x00000789]  Set column to 1
  [0x0000078b]  Extended opcode 2: set Address to 0x5dc
  [0x00000792]  Advance Line by 159 to 160
  [0x00000795]  Copy
  [0x00000796]  Set column to 18
  [0x00000798]  Special opcode 192: advance Address by 26 to 0x5f6 and Line by 5 to 165
  [0x00000799]  Special opcode 94: advance Address by 12 to 0x602 and Line by 5 to 170
  [0x0000079a]  Set column to 22
  [0x0000079c]  Special opcode 92: advance Address by 12 to 0x60e and Line by 3 to 173
  [0x0000079d]  Special opcode 90: advance Address by 12 to 0x61a and Line by 1 to 174
  [0x0000079e]  Special opcode 90: advance Address by 12 to 0x626 and Line by 1 to 175
  [0x0000079f]  Special opcode 90: advance Address by 12 to 0x632 and Line by 1 to 176
  [0x000007a0]  Set column to 7
  [0x000007a2]  Special opcode 92: advance Address by 12 to 0x63e and Line by 3 to 179
  [0x000007a3]  Set column to 3
  [0x000007a5]  Special opcode 76: advance Address by 10 to 0x648 and Line by 1 to 180
  [0x000007a6]  Set column to 22
  [0x000007a8]  Special opcode 19: advance Address by 2 to 0x64a and Line by 0 to 180
  [0x000007a9]  Set column to 16
  [0x000007ab]  Special opcode 33: advance Address by 4 to 0x64e and Line by 0 to 180
  [0x000007ac]  Set column to 3
  [0x000007ae]  Special opcode 20: advance Address by 2 to 0x650 and Line by 1 to 181
  [0x000007af]  Set column to 22
  [0x000007b1]  Special opcode 19: advance Address by 2 to 0x652 and Line by 0 to 181
  [0x000007b2]  Set column to 16
  [0x000007b4]  Special opcode 47: advance Address by 6 to 0x658 and Line by 0 to 181
  [0x000007b5]  Set column to 3
  [0x000007b7]  Special opcode 21: advance Address by 2 to 0x65a and Line by 2 to 183
  [0x000007b8]  Set column to 19
  [0x000007ba]  Special opcode 19: advance Address by 2 to 0x65c and Line by 0 to 183
  [0x000007bb]  Set column to 17
  [0x000007bd]  Special opcode 75: advance Address by 10 to 0x666 and Line by 0 to 183
  [0x000007be]  Set column to 19
  [0x000007c0]  Special opcode 20: advance Address by 2 to 0x668 and Line by 1 to 184
  [0x000007c1]  Set column to 16
  [0x000007c3]  Special opcode 75: advance Address by 10 to 0x672 and Line by 0 to 184
  [0x000007c4]  Set column to 19
  [0x000007c6]  Special opcode 76: advance Address by 10 to 0x67c and Line by 1 to 185
  [0x000007c7]  Set column to 16
  [0x000007c9]  Special opcode 75: advance Address by 10 to 0x686 and Line by 0 to 185
  [0x000007ca]  Set column to 3
  [0x000007cc]  Special opcode 77: advance Address by 10 to 0x690 and Line by 2 to 187
  [0x000007cd]  Set column to 16
  [0x000007cf]  Special opcode 35: advance Address by 4 to 0x694 and Line by 2 to 189
  [0x000007d0]  Set column to 1
  [0x000007d2]  Special opcode 118: advance Address by 16 to 0x6a4 and Line by 1 to 190
  [0x000007d3]  Advance PC by 48 to 0x6d4
  [0x000007d5]  Extended opcode 1: End of Sequence


  Offset:                      0x7d8
  Length:                      283
  DWARF Version:               3
  Prologue Length:             29
  Minimum Instruction Length:  2
  Initial value of 'is_stmt':  1
  Line Base:                   -5
  Line Range:                  14
  Opcode Base:                 13

 Opcodes:
  Opcode 1 has 0 args
  Opcode 2 has 1 arg
  Opcode 3 has 1 arg
  Opcode 4 has 1 arg
  Opcode 5 has 1 arg
  Opcode 6 has 0 args
  Opcode 7 has 0 args
  Opcode 8 has 0 args
  Opcode 9 has 1 arg
  Opcode 10 has 0 args
  Opcode 11 has 0 args
  Opcode 12 has 1 arg

 The Directory Table is empty.

 The File Name Table (offset 0x7f4):
  Entry	Dir	Time	Size	Name
  1	0	0	0	uart.c

 Line Number Statements:
  [0x000007ff]  Set column to 25
  [0x00000801]  Extended opcode 2: set Address to 0x6d4
  [0x00000808]  Special opcode 7: advance Address by 0 to 0x6d4 and Line by 2 to 3
  [0x00000809]  Set column to 10
  [0x0000080b]  Special opcode 76: advance Address by 10 to 0x6de and Line by 1 to 4
  [0x0000080c]  Set column to 12
  [0x0000080e]  Extended opcode 4: set Discriminator to 1
  [0x00000812]  Special opcode 19: advance Address by 2 to 0x6e0 and Line by 0 to 4
  [0x00000813]  Set column to 10
  [0x00000815]  Extended opcode 4: set Discriminator to 1
  [0x00000819]  Special opcode 47: advance Address by 6 to 0x6e6 and Line by 0 to 4
  [0x0000081a]  Set column to 5
  [0x0000081c]  Special opcode 34: advance Address by 4 to 0x6ea and Line by 1 to 5
  [0x0000081d]  Set column to 1
  [0x0000081f]  Special opcode 62: advance Address by 8 to 0x6f2 and Line by 1 to 6
  [0x00000820]  Advance PC by 8 to 0x6fa
  [0x00000822]  Extended opcode 1: End of Sequence

  [0x00000825]  Set column to 18
  [0x00000827]  Extended opcode 2: set Address to 0x0
  [0x0000082e]  Special opcode 12: advance Address by 0 to 0x0 and Line by 7 to 8
  [0x0000082f]  Set column to 10
  [0x00000831]  Special opcode 34: advance Address by 4 to 0x4 and Line by 1 to 9
  [0x00000832]  Set column to 12
  [0x00000834]  Extended opcode 4: set Discriminator to 1
  [0x00000838]  Special opcode 19: advance Address by 2 to 0x6 and Line by 0 to 9
  [0x00000839]  Set column to 10
  [0x0000083b]  Extended opcode 4: set Discriminator to 1
  [0x0000083f]  Special opcode 47: advance Address by 6 to 0xc and Line by 0 to 9
  [0x00000840]  Set column to 12
  [0x00000842]  Special opcode 34: advance Address by 4 to 0x10 and Line by 1 to 10
  [0x00000843]  Set column to 1
  [0x00000845]  Special opcode 48: advance Address by 6 to 0x16 and Line by 1 to 11
  [0x00000846]  Advance PC by 4 to 0x1a
  [0x00000848]  Extended opcode 1: End of Sequence

  [0x0000084b]  Set column to 26
  [0x0000084d]  Extended opcode 2: set Address to 0x0
  [0x00000854]  Advance Line by 12 to 13
  [0x00000856]  Copy
  [0x00000857]  Set column to 11
  [0x00000859]  Special opcode 49: advance Address by 6 to 0x6 and Line by 2 to 15
  [0x0000085a]  Set column to 10
  [0x0000085c]  Special opcode 35: advance Address by 4 to 0xa and Line by 2 to 17
  [0x0000085d]  Set column to 24
  [0x0000085f]  Extended opcode 4: set Discriminator to 3
  [0x00000863]  Special opcode 36: advance Address by 4 to 0xe and Line by 3 to 20
  [0x00000864]  Set column to 25
  [0x00000866]  Extended opcode 4: set Discriminator to 3
  [0x0000086a]  Special opcode 62: advance Address by 8 to 0x16 and Line by 1 to 21
  [0x0000086b]  Set column to 23
  [0x0000086d]  Extended opcode 4: set Discriminator to 3
  [0x00000871]  Special opcode 48: advance Address by 6 to 0x1c and Line by 1 to 22
  [0x00000872]  Set column to 5
  [0x00000874]  Extended opcode 4: set Discriminator to 3
  [0x00000878]  Special opcode 48: advance Address by 6 to 0x22 and Line by 1 to 23
  [0x00000879]  Set column to 34
  [0x0000087b]  Extended opcode 4: set Discriminator to 1
  [0x0000087f]  Special opcode 47: advance Address by 6 to 0x28 and Line by 0 to 23
  [0x00000880]  Set column to 58
  [0x00000882]  Extended opcode 4: set Discriminator to 2
  [0x00000886]  Special opcode 47: advance Address by 6 to 0x2e and Line by 0 to 23
  [0x00000887]  Set column to 21
  [0x00000889]  Special opcode 49: advance Address by 6 to 0x34 and Line by 2 to 25
  [0x0000088a]  Set column to 12
  [0x0000088c]  Special opcode 49: advance Address by 6 to 0x3a and Line by 2 to 27
  [0x0000088d]  Set column to 1
  [0x0000088f]  Special opcode 20: advance Address by 2 to 0x3c and Line by 1 to 28
  [0x00000890]  Advance PC by 12 to 0x48
  [0x00000892]  Extended opcode 1: End of Sequence

  [0x00000895]  Set column to 18
  [0x00000897]  Extended opcode 2: set Address to 0x6fa
  [0x0000089e]  Advance Line by 29 to 30
  [0x000008a0]  Copy
  [0x000008a1]  Set column to 5
  [0x000008a3]  Special opcode 34: advance Address by 4 to 0x6fe and Line by 1 to 31
  [0x000008a4]  Set column to 1
  [0x000008a6]  Special opcode 104: advance Address by 14 to 0x70c and Line by 1 to 32
  [0x000008a7]  Advance PC by 4 to 0x710
  [0x000008a9]  Extended opcode 1: End of Sequence

  [0x000008ac]  Set column to 33
  [0x000008ae]  Extended opcode 2: set Address to 0x710
  [0x000008b5]  Advance Line by 33 to 34
  [0x000008b7]  Copy
  [0x000008b8]  Set column to 10
  [0x000008ba]  Special opcode 62: advance Address by 8 to 0x718 and Line by 1 to 35
  [0x000008bb]  Set column to 31
  [0x000008bd]  Extended opcode 4: set Discriminator to 2
  [0x000008c1]  Special opcode 19: advance Address by 2 to 0x71a and Line by 0 to 35
  [0x000008c2]  Set column to 17
  [0x000008c4]  Extended opcode 4: set Discriminator to 2
  [0x000008c8]  Special opcode 47: advance Address by 6 to 0x720 and Line by 0 to 35
  [0x000008c9]  Set column to 11
  [0x000008cb]  Extended opcode 4: set Discriminator to 1
  [0x000008cf]  Special opcode 61: advance Address by 8 to 0x728 and Line by 0 to 35
  [0x000008d0]  Set column to 10
  [0x000008d2]  Extended opcode 4: set Discriminator to 1
  [0x000008d6]  Special opcode 33: advance Address by 4 to 0x72c and Line by 0 to 35
  [0x000008d7]  Set column to 1
  [0x000008d9]  Special opcode 34: advance Address by 4 to 0x730 and Line by 1 to 36
  [0x000008da]  Advance PC by 10 to 0x73a
  [0x000008dc]  Extended opcode 1: End of Sequence

  [0x000008df]  Set column to 35
  [0x000008e1]  Extended opcode 2: set Address to 0x73a
  [0x000008e8]  Advance Line by 37 to 38
  [0x000008ea]  Copy
  [0x000008eb]  Set column to 5
  [0x000008ed]  Special opcode 62: advance Address by 8 to 0x742 and Line by 1 to 39
  [0x000008ee]  Special opcode 48: advance Address by 6 to 0x748 and Line by 1 to 40
  [0x000008ef]  Set column to 1
  [0x000008f1]  Special opcode 48: advance Address by 6 to 0x74e and Line by 1 to 41
  [0x000008f2]  Advance PC by 8 to 0x756
  [0x000008f4]  Extended opcode 1: End of Sequence


Contents of the .debug_str section:

  0x00000000 73657475 70506f72 74460062 7574746f setupPortF.butto
  0x00000010 6e5f7377 315f7072 65737365 6400424c n_sw1_pressed.BL
  0x00000020 55450075 6e736967 6e656420 63686172 UE.unsigned char
  0x00000030 0073686f 72742075 6e736967 6e656420 .short unsigned 
  0x00000040 696e7400 5f5f7569 6e743332 5f740043 int.__uint32_t.C
  0x00000050 59414e00 4d414745 4e544100 73686f72 YAN.MAGENTA.shor
  0x00000060 7420696e 7400636f 6c6f7200 47524545 t int.color.GREE
  0x00000070 4e005748 49544500 6c6f6e67 206c6f6e N.WHITE.long lon
  0x00000080 6720756e 7369676e 65642069 6e74006c g unsigned int.l
  0x00000090 6f6e6720 6c6f6e67 20696e74 00474e55 ong long int.GNU
  0x000000a0 20433939 20392e33 2e312032 30323030  C99 9.3.1 20200
  0x000000b0 34303820 2872656c 65617365 29202d6d 408 (release) -m
  0x000000c0 7468756d 62202d6d 6370753d 636f7274 thumb -mcpu=cort
  0x000000d0 65782d6d 34202d6d 6670753d 66707634 ex-m4 -mfpu=fpv4
  0x000000e0 2d73702d 64313620 2d6d666c 6f61742d -sp-d16 -mfloat-
  0x000000f0 6162693d 736f6674 6670202d 6d617263 abi=softfp -marc
  0x00000100 683d6172 6d763765 2d6d2b66 70202d67 h=armv7e-m+fp -g
  0x00000110 202d4f73 202d4f30 202d7374 643d6339  -Os -O0 -std=c9
  0x00000120 39202d66 66756e63 74696f6e 2d736563 9 -ffunction-sec
  0x00000130 74696f6e 73202d66 64617461 2d736563 tions -fdata-sec
  0x00000140 74696f6e 73007365 744c4544 436f6c6f tions.setLEDColo
  0x00000150 72006770 696f2e63 002f686f 6d652f62 r.gpio.c./home/b
  0x00000160 616c6465 722f446f 63756d65 6e74732f alder/Documents/
  0x00000170 756e692f 6c656374 75726573 2f53656d uni/lectures/Sem
  0x00000180 65737465 7220342f 73656d65 73746572 ester 4/semester
  0x00000190 70726f6a 2f6d6963 726f636f 6e74726f proj/microcontro
  0x000001a0 6c6c6572 0059454c 4c4f5700 7469636b ller.YELLOW.tick
  0x000001b0 73007365 74757000 53797354 69636b5f s.setup.SysTick_
  0x000001c0 48616e64 6c657200 494e5431 36550066 Handler.INT16U.f
  0x000001d0 6c6f6174 00646f75 626c6500 6d61696e loat.double.main
  0x000001e0 006d6169 6e2e6300 5f656273 73005f62 .main.c._ebss._b
  0x000001f0 73730070 756c5374 61636b00 675f7066 ss.pulStack.g_pf
  0x00000200 6e566563 746f7273 00526573 65744953 nVectors.ResetIS
  0x00000210 52005f65 64617461 0070756c 44657374 R._edata.pulDest
  0x00000220 00496e74 44656661 756c7448 616e646c .IntDefaultHandl
  0x00000230 65720046 61756c74 49535200 73746172 er.FaultISR.star
  0x00000240 7475705f 6763632e 63004750 494f465f tup_gcc.c.GPIOF_
  0x00000250 48616e64 6c657200 5f657465 78740070 Handler._etext.p
  0x00000260 756c5372 63005f64 61746100 4e6d6953 ulSrc._data.NmiS
  0x00000270 52007379 73746963 6b2e6300 696e6974 R.systick.c.init
  0x00000280 5f737973 7469636b 00726573 756c7400 _systick.result.
  0x00000290 616e7461 6c5f7374 6f706269 74730061 antal_stopbits.a
  0x000002a0 6e74616c 5f646174 61626974 73006c63 ntal_databits.lc
  0x000002b0 72685f73 746f7062 69747300 75617274 rh_stopbits.uart
  0x000002c0 305f7278 5f726479 00756172 74305f70 0_rx_rdy.uart0_p
  0x000002d0 75746300 75617274 302e6300 424f4f4c utc.uart0.c.BOOL
  0x000002e0 45414e00 62617564 5f726174 65007561 EAN.baud_rate.ua
  0x000002f0 7274305f 6669666f 735f6469 7361626c rt0_fifos_disabl
  0x00000300 65007561 7274305f 6669666f 735f656e e.uart0_fifos_en
  0x00000310 61626c65 00494e54 38550075 61727430 able.INT8U.uart0
  0x00000320 5f696e69 74007561 7274305f 74785f72 _init.uart0_tx_r
  0x00000330 64790049 4e543332 55007561 7274305f dy.INT32U.uart0_
  0x00000340 67657463 006c6372 685f7061 72697479 getc.lcrh_parity
  0x00000350 006c6372 685f6461 74616269 74730075 .lcrh_databits.u
  0x00000360 6172745f 7075745f 73747269 6e670075 art_put_string.u
  0x00000370 6172745f 70757463 00756172 745f6765 art_putc.uart_ge
  0x00000380 74630063 75727265 6e745f63 68617200 tc.current_char.
  0x00000390 75617274 2e630075 6172745f 6765745f uart.c.uart_get_
  0x000003a0 73747269 6e670062 75666665 725f706f string.buffer_po
  0x000003b0 696e7465 72007561 72745f69 6e697400 inter.uart_init.
  0x000003c0 62756666 65720075 6172745f 7075745f buffer.uart_put_
  0x000003d0 73747269 6e676c6e 00                stringln.

Contents of the .debug_frame section:


00000000 0000000c ffffffff CIE
  Version:               1
  Augmentation:          ""
  Code alignment factor: 2
  Data alignment factor: -4
  Return address column: 14

  DW_CFA_def_cfa: r13 ofs 0

00000010 0000001c 00000000 FDE cie=00000000 pc=0000026c..000002fc
  DW_CFA_advance_loc: 2 to 0000026e
  DW_CFA_def_cfa_offset: 4
  DW_CFA_offset: r7 at cfa-4
  DW_CFA_advance_loc: 2 to 00000270
  DW_CFA_def_cfa_register: r7
  DW_CFA_advance_loc: 92 to 000002cc
  DW_CFA_def_cfa_register: r13
  DW_CFA_advance_loc: 4 to 000002d0
  DW_CFA_restore: r7
  DW_CFA_def_cfa_offset: 0
  DW_CFA_nop

00000030 00000024 00000000 FDE cie=00000000 pc=000002fc..00000320
  DW_CFA_advance_loc: 2 to 000002fe
  DW_CFA_def_cfa_offset: 4
  DW_CFA_offset: r7 at cfa-4
  DW_CFA_advance_loc: 2 to 00000300
  DW_CFA_def_cfa_offset: 16
  DW_CFA_advance_loc: 2 to 00000302
  DW_CFA_def_cfa_register: r7
  DW_CFA_advance_loc: 16 to 00000312
  DW_CFA_def_cfa_offset: 4
  DW_CFA_advance_loc: 2 to 00000314
  DW_CFA_def_cfa_register: r13
  DW_CFA_advance_loc: 4 to 00000318
  DW_CFA_restore: r7
  DW_CFA_def_cfa_offset: 0
  DW_CFA_nop
  DW_CFA_nop
  DW_CFA_nop

00000058 0000001c 00000000 FDE cie=00000000 pc=00000000..0000001c
  DW_CFA_advance_loc: 2 to 00000002
  DW_CFA_def_cfa_offset: 4
  DW_CFA_offset: r7 at cfa-4
  DW_CFA_advance_loc: 2 to 00000004
  DW_CFA_def_cfa_register: r7
  DW_CFA_advance_loc: 14 to 00000012
  DW_CFA_def_cfa_register: r13
  DW_CFA_advance_loc: 4 to 00000016
  DW_CFA_restore: r7
  DW_CFA_def_cfa_offset: 0
  DW_CFA_nop

00000078 0000000c ffffffff CIE
  Version:               1
  Augmentation:          ""
  Code alignment factor: 2
  Data alignment factor: -4
  Return address column: 14

  DW_CFA_def_cfa: r13 ofs 0

00000088 0000001c 00000078 FDE cie=00000078 pc=00000320..0000034c
  DW_CFA_advance_loc: 2 to 00000322
  DW_CFA_def_cfa_offset: 4
  DW_CFA_offset: r7 at cfa-4
  DW_CFA_advance_loc: 2 to 00000324
  DW_CFA_def_cfa_register: r7
  DW_CFA_advance_loc: 28 to 00000340
  DW_CFA_def_cfa_register: r13
  DW_CFA_advance_loc: 4 to 00000344
  DW_CFA_restore: r7
  DW_CFA_def_cfa_offset: 0
  DW_CFA_nop

000000a8 00000018 00000078 FDE cie=00000078 pc=0000034c..000003b4
  DW_CFA_advance_loc: 2 to 0000034e
  DW_CFA_def_cfa_offset: 8
  DW_CFA_offset: r7 at cfa-8
  DW_CFA_offset: r14 at cfa-4
  DW_CFA_advance_loc: 2 to 00000350
  DW_CFA_def_cfa_register: r7
  DW_CFA_nop
  DW_CFA_nop

000000c4 00000018 00000078 FDE cie=00000078 pc=000003b4..0000040c
  DW_CFA_advance_loc: 2 to 000003b6
  DW_CFA_def_cfa_offset: 8
  DW_CFA_offset: r7 at cfa-8
  DW_CFA_offset: r14 at cfa-4
  DW_CFA_advance_loc: 2 to 000003b8
  DW_CFA_def_cfa_register: r7
  DW_CFA_nop
  DW_CFA_nop

000000e0 0000000c ffffffff CIE
  Version:               1
  Augmentation:          ""
  Code alignment factor: 2
  Data alignment factor: -4
  Return address column: 14

  DW_CFA_def_cfa: r13 ofs 0

000000f0 00000020 000000e0 FDE cie=000000e0 pc=0000040c..00000460
  DW_CFA_advance_loc: 2 to 0000040e
  DW_CFA_def_cfa_offset: 8
  DW_CFA_offset: r7 at cfa-8
  DW_CFA_offset: r14 at cfa-4
  DW_CFA_advance_loc: 2 to 00000410
  DW_CFA_def_cfa_offset: 16
  DW_CFA_advance_loc: 2 to 00000412
  DW_CFA_def_cfa_register: r7
  DW_CFA_advance_loc: 60 to 0000044e
  DW_CFA_def_cfa_offset: 8
  DW_CFA_advance_loc: 2 to 00000450
  DW_CFA_def_cfa_register: r13
  DW_CFA_nop

00000114 00000014 000000e0 FDE cie=000000e0 pc=00000468..0000046e
  DW_CFA_advance_loc: 2 to 0000046a
  DW_CFA_def_cfa_offset: 4
  DW_CFA_offset: r7 at cfa-4
  DW_CFA_advance_loc: 2 to 0000046c
  DW_CFA_def_cfa_register: r7

0000012c 00000014 000000e0 FDE cie=000000e0 pc=0000046e..00000474
  DW_CFA_advance_loc: 2 to 00000470
  DW_CFA_def_cfa_offset: 4
  DW_CFA_offset: r7 at cfa-4
  DW_CFA_advance_loc: 2 to 00000472
  DW_CFA_def_cfa_register: r7

00000144 00000014 000000e0 FDE cie=000000e0 pc=00000474..0000047a
  DW_CFA_advance_loc: 2 to 00000476
  DW_CFA_def_cfa_offset: 4
  DW_CFA_offset: r7 at cfa-4
  DW_CFA_advance_loc: 2 to 00000478
  DW_CFA_def_cfa_register: r7

0000015c 00000014 000000e0 FDE cie=000000e0 pc=00000000..00000006
  DW_CFA_advance_loc: 2 to 00000002
  DW_CFA_def_cfa_offset: 4
  DW_CFA_offset: r7 at cfa-4
  DW_CFA_advance_loc: 2 to 00000004
  DW_CFA_def_cfa_register: r7

00000174 00000014 000000e0 FDE cie=000000e0 pc=0000047a..00000480
  DW_CFA_advance_loc: 2 to 0000047c
  DW_CFA_def_cfa_offset: 4
  DW_CFA_offset: r7 at cfa-4
  DW_CFA_advance_loc: 2 to 0000047e
  DW_CFA_def_cfa_register: r7

0000018c 0000000c ffffffff CIE
  Version:               1
  Augmentation:          ""
  Code alignment factor: 2
  Data alignment factor: -4
  Return address column: 14

  DW_CFA_def_cfa: r13 ofs 0

0000019c 0000001c 0000018c FDE cie=0000018c pc=00000480..000004dc
  DW_CFA_advance_loc: 2 to 00000482
  DW_CFA_def_cfa_offset: 4
  DW_CFA_offset: r7 at cfa-4
  DW_CFA_advance_loc: 2 to 00000484
  DW_CFA_def_cfa_register: r7
  DW_CFA_advance_loc: 68 to 000004c8
  DW_CFA_def_cfa_register: r13
  DW_CFA_advance_loc: 4 to 000004cc
  DW_CFA_restore: r7
  DW_CFA_def_cfa_offset: 0
  DW_CFA_nop

000001bc 0000000c ffffffff CIE
  Version:               1
  Augmentation:          ""
  Code alignment factor: 2
  Data alignment factor: -4
  Return address column: 14

  DW_CFA_def_cfa: r13 ofs 0

000001cc 00000024 000001bc FDE cie=000001bc pc=000004dc..00000508
  DW_CFA_advance_loc: 2 to 000004de
  DW_CFA_def_cfa_offset: 4
  DW_CFA_offset: r7 at cfa-4
  DW_CFA_advance_loc: 2 to 000004e0
  DW_CFA_def_cfa_offset: 16
  DW_CFA_advance_loc: 2 to 000004e2
  DW_CFA_def_cfa_register: r7
  DW_CFA_advance_loc: 30 to 00000500
  DW_CFA_def_cfa_offset: 4
  DW_CFA_advance_loc: 2 to 00000502
  DW_CFA_def_cfa_register: r13
  DW_CFA_advance_loc: 4 to 00000506
  DW_CFA_restore: r7
  DW_CFA_def_cfa_offset: 0
  DW_CFA_nop
  DW_CFA_nop
  DW_CFA_nop

000001f4 00000024 000001bc FDE cie=000001bc pc=00000508..0000052a
  DW_CFA_advance_loc: 2 to 0000050a
  DW_CFA_def_cfa_offset: 4
  DW_CFA_offset: r7 at cfa-4
  DW_CFA_advance_loc: 2 to 0000050c
  DW_CFA_def_cfa_offset: 16
  DW_CFA_advance_loc: 2 to 0000050e
  DW_CFA_def_cfa_register: r7
  DW_CFA_advance_loc: 20 to 00000522
  DW_CFA_def_cfa_offset: 4
  DW_CFA_advance_loc: 2 to 00000524
  DW_CFA_def_cfa_register: r13
  DW_CFA_advance_loc: 4 to 00000528
  DW_CFA_restore: r7
  DW_CFA_def_cfa_offset: 0
  DW_CFA_nop
  DW_CFA_nop
  DW_CFA_nop

0000021c 00000024 000001bc FDE cie=000001bc pc=0000052a..0000057a
  DW_CFA_advance_loc: 2 to 0000052c
  DW_CFA_def_cfa_offset: 4
  DW_CFA_offset: r7 at cfa-4
  DW_CFA_advance_loc: 2 to 0000052e
  DW_CFA_def_cfa_offset: 24
  DW_CFA_advance_loc: 2 to 00000530
  DW_CFA_def_cfa_register: r7
  DW_CFA_advance_loc: 66 to 00000572
  DW_CFA_def_cfa_offset: 4
  DW_CFA_advance_loc: 2 to 00000574
  DW_CFA_def_cfa_register: r13
  DW_CFA_advance_loc: 4 to 00000578
  DW_CFA_restore: r7
  DW_CFA_def_cfa_offset: 0
  DW_CFA_nop
  DW_CFA_nop
  DW_CFA_nop

00000244 0000001c 000001bc FDE cie=000001bc pc=00000000..00000020
  DW_CFA_advance_loc: 2 to 00000002
  DW_CFA_def_cfa_offset: 4
  DW_CFA_offset: r7 at cfa-4
  DW_CFA_advance_loc: 2 to 00000004
  DW_CFA_def_cfa_register: r7
  DW_CFA_advance_loc: 16 to 00000014
  DW_CFA_def_cfa_register: r13
  DW_CFA_advance_loc: 4 to 00000018
  DW_CFA_restore: r7
  DW_CFA_def_cfa_offset: 0
  DW_CFA_nop

00000264 0000001c 000001bc FDE cie=000001bc pc=0000057c..0000059c
  DW_CFA_advance_loc: 2 to 0000057e
  DW_CFA_def_cfa_offset: 4
  DW_CFA_offset: r7 at cfa-4
  DW_CFA_advance_loc: 2 to 00000580
  DW_CFA_def_cfa_register: r7
  DW_CFA_advance_loc: 16 to 00000590
  DW_CFA_def_cfa_register: r13
  DW_CFA_advance_loc: 4 to 00000594
  DW_CFA_restore: r7
  DW_CFA_def_cfa_offset: 0
  DW_CFA_nop

00000284 0000001c 000001bc FDE cie=000001bc pc=00000000..00000020
  DW_CFA_advance_loc: 2 to 00000002
  DW_CFA_def_cfa_offset: 4
  DW_CFA_offset: r7 at cfa-4
  DW_CFA_advance_loc: 2 to 00000004
  DW_CFA_def_cfa_register: r7
  DW_CFA_advance_loc: 16 to 00000014
  DW_CFA_def_cfa_register: r13
  DW_CFA_advance_loc: 4 to 00000018
  DW_CFA_restore: r7
  DW_CFA_def_cfa_offset: 0
  DW_CFA_nop

000002a4 0000001c 000001bc FDE cie=000001bc pc=00000000..00000018
  DW_CFA_advance_loc: 2 to 00000002
  DW_CFA_def_cfa_offset: 4
  DW_CFA_offset: r7 at cfa-4
  DW_CFA_advance_loc: 2 to 00000004
  DW_CFA_def_cfa_register: r7
  DW_CFA_advance_loc: 10 to 0000000e
  DW_CFA_def_cfa_register: r13
  DW_CFA_advance_loc: 4 to 00000012
  DW_CFA_restore: r7
  DW_CFA_def_cfa_offset: 0
  DW_CFA_nop

000002c4 0000001c 000001bc FDE cie=000001bc pc=0000059c..000005bc
  DW_CFA_advance_loc: 2 to 0000059e
  DW_CFA_def_cfa_offset: 4
  DW_CFA_offset: r7 at cfa-4
  DW_CFA_advance_loc: 2 to 000005a0
  DW_CFA_def_cfa_register: r7
  DW_CFA_advance_loc: 16 to 000005b0
  DW_CFA_def_cfa_register: r13
  DW_CFA_advance_loc: 4 to 000005b4
  DW_CFA_restore: r7
  DW_CFA_def_cfa_offset: 0
  DW_CFA_nop

000002e4 00000024 000001bc FDE cie=000001bc pc=000005bc..000005dc
  DW_CFA_advance_loc: 2 to 000005be
  DW_CFA_def_cfa_offset: 4
  DW_CFA_offset: r7 at cfa-4
  DW_CFA_advance_loc: 2 to 000005c0
  DW_CFA_def_cfa_offset: 16
  DW_CFA_advance_loc: 2 to 000005c2
  DW_CFA_def_cfa_register: r7
  DW_CFA_advance_loc: 14 to 000005d0
  DW_CFA_def_cfa_offset: 4
  DW_CFA_advance_loc: 2 to 000005d2
  DW_CFA_def_cfa_register: r13
  DW_CFA_advance_loc: 4 to 000005d6
  DW_CFA_restore: r7
  DW_CFA_def_cfa_offset: 0
  DW_CFA_nop
  DW_CFA_nop
  DW_CFA_nop

0000030c 00000024 000001bc FDE cie=000001bc pc=000005dc..000006d4
  DW_CFA_advance_loc: 2 to 000005de
  DW_CFA_def_cfa_offset: 12
  DW_CFA_offset: r4 at cfa-12
  DW_CFA_offset: r7 at cfa-8
  DW_CFA_offset: r14 at cfa-4
  DW_CFA_advance_loc: 2 to 000005e0
  DW_CFA_def_cfa_offset: 32
  DW_CFA_advance_loc: 2 to 000005e2
  DW_CFA_def_cfa_register: r7
  DW_CFA_advance_loc1: 198 to 000006a8
  DW_CFA_def_cfa_offset: 12
  DW_CFA_advance_loc: 2 to 000006aa
  DW_CFA_def_cfa_register: r13
  DW_CFA_nop
  DW_CFA_nop

00000334 0000000c ffffffff CIE
  Version:               1
  Augmentation:          ""
  Code alignment factor: 2
  Data alignment factor: -4
  Return address column: 14

  DW_CFA_def_cfa: r13 ofs 0

00000344 00000020 00000334 FDE cie=00000334 pc=000006d4..000006fa
  DW_CFA_advance_loc: 2 to 000006d6
  DW_CFA_def_cfa_offset: 8
  DW_CFA_offset: r7 at cfa-8
  DW_CFA_offset: r14 at cfa-4
  DW_CFA_advance_loc: 2 to 000006d8
  DW_CFA_def_cfa_offset: 16
  DW_CFA_advance_loc: 2 to 000006da
  DW_CFA_def_cfa_register: r7
  DW_CFA_advance_loc: 28 to 000006f6
  DW_CFA_def_cfa_offset: 8
  DW_CFA_advance_loc: 2 to 000006f8
  DW_CFA_def_cfa_register: r13
  DW_CFA_nop

00000368 00000018 00000334 FDE cie=00000334 pc=00000000..0000001a
  DW_CFA_advance_loc: 2 to 00000002
  DW_CFA_def_cfa_offset: 8
  DW_CFA_offset: r7 at cfa-8
  DW_CFA_offset: r14 at cfa-4
  DW_CFA_advance_loc: 2 to 00000004
  DW_CFA_def_cfa_register: r7
  DW_CFA_nop
  DW_CFA_nop

00000384 00000020 00000334 FDE cie=00000334 pc=00000000..00000048
  DW_CFA_advance_loc: 2 to 00000002
  DW_CFA_def_cfa_offset: 8
  DW_CFA_offset: r7 at cfa-8
  DW_CFA_offset: r14 at cfa-4
  DW_CFA_advance_loc: 2 to 00000004
  DW_CFA_def_cfa_offset: 16
  DW_CFA_advance_loc: 2 to 00000006
  DW_CFA_def_cfa_register: r7
  DW_CFA_advance_loc: 58 to 00000040
  DW_CFA_def_cfa_offset: 8
  DW_CFA_advance_loc: 2 to 00000042
  DW_CFA_def_cfa_register: r13
  DW_CFA_nop

000003a8 00000018 00000334 FDE cie=00000334 pc=000006fa..00000710
  DW_CFA_advance_loc: 2 to 000006fc
  DW_CFA_def_cfa_offset: 8
  DW_CFA_offset: r7 at cfa-8
  DW_CFA_offset: r14 at cfa-4
  DW_CFA_advance_loc: 2 to 000006fe
  DW_CFA_def_cfa_register: r7
  DW_CFA_nop
  DW_CFA_nop

000003c4 00000020 00000334 FDE cie=00000334 pc=00000710..0000073a
  DW_CFA_advance_loc: 2 to 00000712
  DW_CFA_def_cfa_offset: 8
  DW_CFA_offset: r7 at cfa-8
  DW_CFA_offset: r14 at cfa-4
  DW_CFA_advance_loc: 2 to 00000714
  DW_CFA_def_cfa_offset: 16
  DW_CFA_advance_loc: 2 to 00000716
  DW_CFA_def_cfa_register: r7
  DW_CFA_advance_loc: 32 to 00000736
  DW_CFA_def_cfa_offset: 8
  DW_CFA_advance_loc: 2 to 00000738
  DW_CFA_def_cfa_register: r13
  DW_CFA_nop

000003e8 00000020 00000334 FDE cie=00000334 pc=0000073a..00000756
  DW_CFA_advance_loc: 2 to 0000073c
  DW_CFA_def_cfa_offset: 8
  DW_CFA_offset: r7 at cfa-8
  DW_CFA_offset: r14 at cfa-4
  DW_CFA_advance_loc: 2 to 0000073e
  DW_CFA_def_cfa_offset: 16
  DW_CFA_advance_loc: 2 to 00000740
  DW_CFA_def_cfa_register: r7
  DW_CFA_advance_loc: 18 to 00000752
  DW_CFA_def_cfa_offset: 8
  DW_CFA_advance_loc: 2 to 00000754
  DW_CFA_def_cfa_register: r13
  DW_CFA_nop


Disassembly of section .text:

00000000 <g_pfnVectors>:
   0:	00 01 00 20 0d 04 00 00 69 04 00 00 6f 04 00 00     ... ....i...o...
  10:	75 04 00 00 75 04 00 00 75 04 00 00 00 00 00 00     u...u...u.......
	...
  2c:	75 04 00 00 75 04 00 00 00 00 00 00 75 04 00 00     u...u.......u...
  3c:	21 03 00 00 75 04 00 00 75 04 00 00 75 04 00 00     !...u...u...u...
  4c:	75 04 00 00 75 04 00 00 75 04 00 00 75 04 00 00     u...u...u...u...
  5c:	75 04 00 00 75 04 00 00 75 04 00 00 75 04 00 00     u...u...u...u...
  6c:	75 04 00 00 75 04 00 00 75 04 00 00 75 04 00 00     u...u...u...u...
  7c:	75 04 00 00 75 04 00 00 75 04 00 00 75 04 00 00     u...u...u...u...
  8c:	75 04 00 00 75 04 00 00 75 04 00 00 75 04 00 00     u...u...u...u...
  9c:	75 04 00 00 75 04 00 00 75 04 00 00 75 04 00 00     u...u...u...u...
  ac:	75 04 00 00 75 04 00 00 75 04 00 00 7b 04 00 00     u...u...u...{...
  bc:	75 04 00 00 75 04 00 00 75 04 00 00 75 04 00 00     u...u...u...u...
  cc:	75 04 00 00 75 04 00 00 75 04 00 00 75 04 00 00     u...u...u...u...
  dc:	75 04 00 00 75 04 00 00 75 04 00 00 75 04 00 00     u...u...u...u...
  ec:	75 04 00 00 75 04 00 00 75 04 00 00 75 04 00 00     u...u...u...u...
  fc:	75 04 00 00 75 04 00 00 75 04 00 00 75 04 00 00     u...u...u...u...
 10c:	75 04 00 00 75 04 00 00 75 04 00 00 75 04 00 00     u...u...u...u...
 11c:	75 04 00 00 75 04 00 00 75 04 00 00 75 04 00 00     u...u...u...u...
 12c:	75 04 00 00 75 04 00 00 75 04 00 00 75 04 00 00     u...u...u...u...
 13c:	75 04 00 00 00 00 00 00 00 00 00 00 00 00 00 00     u...............
 14c:	00 00 00 00 75 04 00 00 75 04 00 00 75 04 00 00     ....u...u...u...
 15c:	75 04 00 00 00 00 00 00 00 00 00 00 00 00 00 00     u...............
	...
 1b0:	75 04 00 00 75 04 00 00 75 04 00 00 75 04 00 00     u...u...u...u...
 1c0:	75 04 00 00 75 04 00 00 75 04 00 00 75 04 00 00     u...u...u...u...
 1d0:	75 04 00 00 75 04 00 00 75 04 00 00 75 04 00 00     u...u...u...u...
 1e0:	75 04 00 00 75 04 00 00 75 04 00 00 75 04 00 00     u...u...u...u...
 1f0:	75 04 00 00 75 04 00 00 75 04 00 00 75 04 00 00     u...u...u...u...
 200:	75 04 00 00 75 04 00 00 75 04 00 00 00 00 00 00     u...u...u.......
 210:	75 04 00 00 75 04 00 00 75 04 00 00 75 04 00 00     u...u...u...u...
 220:	75 04 00 00 75 04 00 00 75 04 00 00 75 04 00 00     u...u...u...u...
 230:	75 04 00 00 75 04 00 00 75 04 00 00 75 04 00 00     u...u...u...u...
 240:	75 04 00 00 75 04 00 00 75 04 00 00 75 04 00 00     u...u...u...u...
 250:	75 04 00 00 75 04 00 00 75 04 00 00 75 04 00 00     u...u...u...u...
 260:	75 04 00 00 75 04 00 00 75 04 00 00                 u...u...u...

0000026c <setupPortF>:
#include "gpio.h"
#include "tm4c123gh6pm.h"

void setupPortF() {
 26c:	b480      	push	{r7}
 26e:	af00      	add	r7, sp, #0
  // Enable the GPIO port that is used for the on-board LEDs and switches.
  SYSCTL_RCGC2_R = SYSCTL_RCGC2_GPIOF;
 270:	4b18      	ldr	r3, [pc, #96]	; (2d4 <setupPortF+0x68>)
 272:	2220      	movs	r2, #32
 274:	601a      	str	r2, [r3, #0]
  // Set the direction as output (PF1 - PF3).
  GPIO_PORTF_DIR_R = 0b00001110;
 276:	4b18      	ldr	r3, [pc, #96]	; (2d8 <setupPortF+0x6c>)
 278:	220e      	movs	r2, #14
 27a:	601a      	str	r2, [r3, #0]
  // Enable the GPIO pins for digital function (PF1 - PF4)
  GPIO_PORTF_DEN_R = 0b00011110;
 27c:	4b17      	ldr	r3, [pc, #92]	; (2dc <setupPortF+0x70>)
 27e:	221e      	movs	r2, #30
 280:	601a      	str	r2, [r3, #0]
  // Enable internal pull-up (PF4).
  GPIO_PORTF_PUR_R = 0b00010000;
 282:	4b17      	ldr	r3, [pc, #92]	; (2e0 <setupPortF+0x74>)
 284:	2210      	movs	r2, #16
 286:	601a      	str	r2, [r3, #0]

  // Set the interrupt type for PF4 (SW1)
  NVIC_EN0_R |= (1 << (INT_GPIOF - 16)); // enable interrupt in NVIC
 288:	4b16      	ldr	r3, [pc, #88]	; (2e4 <setupPortF+0x78>)
 28a:	681b      	ldr	r3, [r3, #0]
 28c:	4a15      	ldr	r2, [pc, #84]	; (2e4 <setupPortF+0x78>)
 28e:	f043 4380 	orr.w	r3, r3, #1073741824	; 0x40000000
 292:	6013      	str	r3, [r2, #0]
  NVIC_PRI7_R = (NVIC_PRI7_R & 0xFF00FFFF) | 0x00A00000; // priority 5
 294:	4b14      	ldr	r3, [pc, #80]	; (2e8 <setupPortF+0x7c>)
 296:	681b      	ldr	r3, [r3, #0]
 298:	f423 037f 	bic.w	r3, r3, #16711680	; 0xff0000
 29c:	4a12      	ldr	r2, [pc, #72]	; (2e8 <setupPortF+0x7c>)
 29e:	f443 0320 	orr.w	r3, r3, #10485760	; 0xa00000
 2a2:	6013      	str	r3, [r2, #0]
  GPIO_PORTF_IS_R |= 0b00010000;  // PF4 is edge-sensitive
 2a4:	4b11      	ldr	r3, [pc, #68]	; (2ec <setupPortF+0x80>)
 2a6:	681b      	ldr	r3, [r3, #0]
 2a8:	4a10      	ldr	r2, [pc, #64]	; (2ec <setupPortF+0x80>)
 2aa:	f043 0310 	orr.w	r3, r3, #16
 2ae:	6013      	str	r3, [r2, #0]
  GPIO_PORTF_IBE_R |= 0b00010000; // PF4 is both edges
 2b0:	4b0f      	ldr	r3, [pc, #60]	; (2f0 <setupPortF+0x84>)
 2b2:	681b      	ldr	r3, [r3, #0]
 2b4:	4a0e      	ldr	r2, [pc, #56]	; (2f0 <setupPortF+0x84>)
 2b6:	f043 0310 	orr.w	r3, r3, #16
 2ba:	6013      	str	r3, [r2, #0]
  // GPIO_PORTF_IEV_R |= 0b00010000; // PF4 falling edge event
  GPIO_PORTF_IM_R = 0b00010000;  // Interrupt on PF4
 2bc:	4b0d      	ldr	r3, [pc, #52]	; (2f4 <setupPortF+0x88>)
 2be:	2210      	movs	r2, #16
 2c0:	601a      	str	r2, [r3, #0]
  GPIO_PORTF_ICR_R = 0b00010000; // clear flag4
 2c2:	4b0d      	ldr	r3, [pc, #52]	; (2f8 <setupPortF+0x8c>)
 2c4:	2210      	movs	r2, #16
 2c6:	601a      	str	r2, [r3, #0]
}
 2c8:	bf00      	nop
 2ca:	46bd      	mov	sp, r7
 2cc:	f85d 7b04 	ldr.w	r7, [sp], #4
 2d0:	4770      	bx	lr
 2d2:	bf00      	nop
 2d4:	400fe108 	.word	0x400fe108
 2d8:	40025400 	.word	0x40025400
 2dc:	4002551c 	.word	0x4002551c
 2e0:	40025510 	.word	0x40025510
 2e4:	e000e100 	.word	0xe000e100
 2e8:	e000e41c 	.word	0xe000e41c
 2ec:	40025404 	.word	0x40025404
 2f0:	40025408 	.word	0x40025408
 2f4:	40025410 	.word	0x40025410
 2f8:	4002541c 	.word	0x4002541c

000002fc <setLEDColor>:

void setLEDColor(enum LEDColor color) { GPIO_PORTF_DATA_R = color << 1; }
 2fc:	b480      	push	{r7}
 2fe:	b083      	sub	sp, #12
 300:	af00      	add	r7, sp, #0
 302:	4603      	mov	r3, r0
 304:	71fb      	strb	r3, [r7, #7]
 306:	79fb      	ldrb	r3, [r7, #7]
 308:	005a      	lsls	r2, r3, #1
 30a:	4b04      	ldr	r3, [pc, #16]	; (31c <setLEDColor+0x20>)
 30c:	601a      	str	r2, [r3, #0]
 30e:	bf00      	nop
 310:	370c      	adds	r7, #12
 312:	46bd      	mov	sp, r7
 314:	f85d 7b04 	ldr.w	r7, [sp], #4
 318:	4770      	bx	lr
 31a:	bf00      	nop
 31c:	400253fc 	.word	0x400253fc

00000320 <SysTick_Handler>:

#define TIMEOUT 1000

volatile INT16U ticks;

void SysTick_Handler() {
 320:	b480      	push	{r7}
 322:	af00      	add	r7, sp, #0
    if (ticks) ticks--;
 324:	4b08      	ldr	r3, [pc, #32]	; (348 <SysTick_Handler+0x28>)
 326:	881b      	ldrh	r3, [r3, #0]
 328:	b29b      	uxth	r3, r3
 32a:	2b00      	cmp	r3, #0
 32c:	d006      	beq.n	33c <SysTick_Handler+0x1c>
 32e:	4b06      	ldr	r3, [pc, #24]	; (348 <SysTick_Handler+0x28>)
 330:	881b      	ldrh	r3, [r3, #0]
 332:	b29b      	uxth	r3, r3
 334:	3b01      	subs	r3, #1
 336:	b29a      	uxth	r2, r3
 338:	4b03      	ldr	r3, [pc, #12]	; (348 <SysTick_Handler+0x28>)
 33a:	801a      	strh	r2, [r3, #0]
}
 33c:	bf00      	nop
 33e:	46bd      	mov	sp, r7
 340:	f85d 7b04 	ldr.w	r7, [sp], #4
 344:	4770      	bx	lr
 346:	bf00      	nop
 348:	20000100 	.word	0x20000100

0000034c <setup>:

#define INPUT_BIT 0b00000001

void setup() {
 34c:	b580      	push	{r7, lr}
 34e:	af00      	add	r7, sp, #0
    setupPortF();
 350:	f7ff ff8c 	bl	26c <setupPortF>
    setLEDColor(GREEN);
 354:	2004      	movs	r0, #4
 356:	f7ff ffd1 	bl	2fc <setLEDColor>
    init_systick();
 35a:	f000 f891 	bl	480 <init_systick>
    uart_init();
 35e:	f000 f9cc 	bl	6fa <uart_init>

    // 1.
    ADC0_SPC_R = 0x00;
 362:	4b0e      	ldr	r3, [pc, #56]	; (39c <setup+0x50>)
 364:	2200      	movs	r2, #0
 366:	601a      	str	r2, [r3, #0]
    ADC1_SPC_R = 0x00;
 368:	4b0d      	ldr	r3, [pc, #52]	; (3a0 <setup+0x54>)
 36a:	2200      	movs	r2, #0
 36c:	601a      	str	r2, [r3, #0]

    // 2. Enable and provide clock for ADC0
    SYSCTL_RCGCADC_R = 0x0001;
 36e:	4b0d      	ldr	r3, [pc, #52]	; (3a4 <setup+0x58>)
 370:	2201      	movs	r2, #1
 372:	601a      	str	r2, [r3, #0]

    // 3. Set PIN 7 (AIN1/PE2) as peripheral input
    GPIO_PORTE_AFSEL_R |= INPUT_BIT;
 374:	4b0c      	ldr	r3, [pc, #48]	; (3a8 <setup+0x5c>)
 376:	681b      	ldr	r3, [r3, #0]
 378:	4a0b      	ldr	r2, [pc, #44]	; (3a8 <setup+0x5c>)
 37a:	f043 0301 	orr.w	r3, r3, #1
 37e:	6013      	str	r3, [r2, #0]

    // 4. Configure PE2 to be an ANALOG input
    GPIO_PORTE_DEN_R &= ~(INPUT_BIT);
 380:	4b0a      	ldr	r3, [pc, #40]	; (3ac <setup+0x60>)
 382:	681b      	ldr	r3, [r3, #0]
 384:	4a09      	ldr	r2, [pc, #36]	; (3ac <setup+0x60>)
 386:	f023 0301 	bic.w	r3, r3, #1
 38a:	6013      	str	r3, [r2, #0]

    // 5. Disable analog isolation for input bit
    GPIO_PORTE_AMSEL_R |= INPUT_BIT;
 38c:	4b08      	ldr	r3, [pc, #32]	; (3b0 <setup+0x64>)
 38e:	681b      	ldr	r3, [r3, #0]
 390:	4a07      	ldr	r2, [pc, #28]	; (3b0 <setup+0x64>)
 392:	f043 0301 	orr.w	r3, r3, #1
 396:	6013      	str	r3, [r2, #0]

}
 398:	bf00      	nop
 39a:	bd80      	pop	{r7, pc}
 39c:	40038024 	.word	0x40038024
 3a0:	40039024 	.word	0x40039024
 3a4:	400fe638 	.word	0x400fe638
 3a8:	40024420 	.word	0x40024420
 3ac:	4002451c 	.word	0x4002451c
 3b0:	40024528 	.word	0x40024528

000003b4 <main>:

int main(void) {
 3b4:	b580      	push	{r7, lr}
 3b6:	af00      	add	r7, sp, #0
    setup();
 3b8:	f7ff ffc8 	bl	34c <setup>

    while(1) {
        uart_put_stringln("Turning ON!");
 3bc:	4810      	ldr	r0, [pc, #64]	; (400 <main+0x4c>)
 3be:	f000 f9bc 	bl	73a <uart_put_stringln>
        setLEDColor(BLUE);
 3c2:	2002      	movs	r0, #2
 3c4:	f7ff ff9a 	bl	2fc <setLEDColor>
        ticks = TIMEOUT;
 3c8:	4b0e      	ldr	r3, [pc, #56]	; (404 <main+0x50>)
 3ca:	f44f 727a 	mov.w	r2, #1000	; 0x3e8
 3ce:	801a      	strh	r2, [r3, #0]
        while (ticks);
 3d0:	bf00      	nop
 3d2:	4b0c      	ldr	r3, [pc, #48]	; (404 <main+0x50>)
 3d4:	881b      	ldrh	r3, [r3, #0]
 3d6:	b29b      	uxth	r3, r3
 3d8:	2b00      	cmp	r3, #0
 3da:	d1fa      	bne.n	3d2 <main+0x1e>
        uart_put_stringln("Turning OFF...");
 3dc:	480a      	ldr	r0, [pc, #40]	; (408 <main+0x54>)
 3de:	f000 f9ac 	bl	73a <uart_put_stringln>
        setLEDColor(OFF);
 3e2:	2000      	movs	r0, #0
 3e4:	f7ff ff8a 	bl	2fc <setLEDColor>
        ticks = TIMEOUT;
 3e8:	4b06      	ldr	r3, [pc, #24]	; (404 <main+0x50>)
 3ea:	f44f 727a 	mov.w	r2, #1000	; 0x3e8
 3ee:	801a      	strh	r2, [r3, #0]
        while (ticks);
 3f0:	bf00      	nop
 3f2:	4b04      	ldr	r3, [pc, #16]	; (404 <main+0x50>)
 3f4:	881b      	ldrh	r3, [r3, #0]
 3f6:	b29b      	uxth	r3, r3
 3f8:	2b00      	cmp	r3, #0
 3fa:	d1fa      	bne.n	3f2 <main+0x3e>
        uart_put_stringln("Turning ON!");
 3fc:	e7de      	b.n	3bc <main+0x8>
 3fe:	bf00      	nop
 400:	00000758 	.word	0x00000758
 404:	20000100 	.word	0x20000100
 408:	00000764 	.word	0x00000764

0000040c <ResetISR>:
// actions (such as making decisions based on the reset cause register, and
// resetting the bits in that register) are left solely in the hands of the
// application.
//
//*****************************************************************************
void ResetISR(void) {
 40c:	b580      	push	{r7, lr}
 40e:	b082      	sub	sp, #8
 410:	af00      	add	r7, sp, #0
  unsigned long *pulSrc, *pulDest;

  //
  // Copy the data segment initializers from flash to SRAM.
  //
  pulSrc = &_etext;
 412:	4b10      	ldr	r3, [pc, #64]	; (454 <zero_loop+0x18>)
 414:	607b      	str	r3, [r7, #4]
  for (pulDest = &_data; pulDest < &_edata;) {
 416:	4b10      	ldr	r3, [pc, #64]	; (458 <zero_loop+0x1c>)
 418:	603b      	str	r3, [r7, #0]
 41a:	e007      	b.n	42c <ResetISR+0x20>
    *pulDest++ = *pulSrc++;
 41c:	687a      	ldr	r2, [r7, #4]
 41e:	1d13      	adds	r3, r2, #4
 420:	607b      	str	r3, [r7, #4]
 422:	683b      	ldr	r3, [r7, #0]
 424:	1d19      	adds	r1, r3, #4
 426:	6039      	str	r1, [r7, #0]
 428:	6812      	ldr	r2, [r2, #0]
 42a:	601a      	str	r2, [r3, #0]
  for (pulDest = &_data; pulDest < &_edata;) {
 42c:	683b      	ldr	r3, [r7, #0]
 42e:	4a0b      	ldr	r2, [pc, #44]	; (45c <zero_loop+0x20>)
 430:	4293      	cmp	r3, r2
 432:	d3f3      	bcc.n	41c <ResetISR+0x10>
  }

  //
  // Zero fill the bss segment.
  //
  __asm("    ldr     r0, =_bss\n"
 434:	480a      	ldr	r0, [pc, #40]	; (460 <zero_loop+0x24>)
 436:	490b      	ldr	r1, [pc, #44]	; (464 <zero_loop+0x28>)
 438:	f04f 0200 	mov.w	r2, #0

0000043c <zero_loop>:
 43c:	4288      	cmp	r0, r1
 43e:	bfb8      	it	lt
 440:	f840 2b04 	strlt.w	r2, [r0], #4
 444:	dbfa      	blt.n	43c <zero_loop>
        "        blt     zero_loop");

  //
  // Call the application's entry point.
  //
  main();
 446:	f7ff ffb5 	bl	3b4 <main>
}
 44a:	bf00      	nop
 44c:	3708      	adds	r7, #8
 44e:	46bd      	mov	sp, r7
 450:	bd80      	pop	{r7, pc}
 452:	bf00      	nop
 454:	00000773 	.word	0x00000773
 458:	20000000 	.word	0x20000000
 45c:	20000000 	.word	0x20000000
 460:	20000000 	.word	0x20000000
 464:	20000102 	.word	0x20000102

00000468 <NmiSR>:
// This is the code that gets called when the processor receives a NMI.  This
// simply enters an infinite loop, preserving the system state for examination
// by a debugger.
//
//*****************************************************************************
static void NmiSR(void) {
 468:	b480      	push	{r7}
 46a:	af00      	add	r7, sp, #0
  //
  // Enter an infinite loop.
  //
  while (1) {
 46c:	e7fe      	b.n	46c <NmiSR+0x4>

0000046e <FaultISR>:
// This is the code that gets called when the processor receives a fault
// interrupt.  This simply enters an infinite loop, preserving the system state
// for examination by a debugger.
//
//*****************************************************************************
static void FaultISR(void) {
 46e:	b480      	push	{r7}
 470:	af00      	add	r7, sp, #0
  //
  // Enter an infinite loop.
  //
  while (1) {
 472:	e7fe      	b.n	472 <FaultISR+0x4>

00000474 <IntDefaultHandler>:
// This is the code that gets called when the processor receives an unexpected
// interrupt.  This simply enters an infinite loop, preserving the system state
// for examination by a debugger.
//
//*****************************************************************************
static void IntDefaultHandler(void) {
 474:	b480      	push	{r7}
 476:	af00      	add	r7, sp, #0
  //
  // Go into an infinite loop.
  //
  while (1) {
 478:	e7fe      	b.n	478 <IntDefaultHandler+0x4>

0000047a <GPIOF_Handler>:
//*****************************************************************************
__attribute__((weak)) void SysTick_Handler(void) {
  while (1) {
  }
}
__attribute__((weak)) void GPIOF_Handler(void) {
 47a:	b480      	push	{r7}
 47c:	af00      	add	r7, sp, #0
  while (1) {
 47e:	e7fe      	b.n	47e <GPIOF_Handler+0x4>

00000480 <init_systick>:

#include "systick.h"
void init_systick() {
 480:	b480      	push	{r7}
 482:	af00      	add	r7, sp, #0

  // Disable systick timer
  NVIC_ST_CTRL_R &= ~(NVIC_ST_CTRL_ENABLE);
 484:	4b12      	ldr	r3, [pc, #72]	; (4d0 <init_systick+0x50>)
 486:	681b      	ldr	r3, [r3, #0]
 488:	4a11      	ldr	r2, [pc, #68]	; (4d0 <init_systick+0x50>)
 48a:	f023 0301 	bic.w	r3, r3, #1
 48e:	6013      	str	r3, [r2, #0]

  // Set current systick counter to reload value
  NVIC_ST_CURRENT_R = SYSTICK_RELOAD_VALUE;
 490:	4b10      	ldr	r3, [pc, #64]	; (4d4 <init_systick+0x54>)
 492:	f44f 527a 	mov.w	r2, #16000	; 0x3e80
 496:	601a      	str	r2, [r3, #0]
  // Set Reload value, Systick reload register
  NVIC_ST_RELOAD_R = SYSTICK_RELOAD_VALUE;
 498:	4b0f      	ldr	r3, [pc, #60]	; (4d8 <init_systick+0x58>)
 49a:	f44f 527a 	mov.w	r2, #16000	; 0x3e80
 49e:	601a      	str	r2, [r3, #0]

  // Select systick clock source, Use core clock
  NVIC_ST_CTRL_R |= NVIC_ST_CTRL_CLK_SRC;
 4a0:	4b0b      	ldr	r3, [pc, #44]	; (4d0 <init_systick+0x50>)
 4a2:	681b      	ldr	r3, [r3, #0]
 4a4:	4a0a      	ldr	r2, [pc, #40]	; (4d0 <init_systick+0x50>)
 4a6:	f043 0304 	orr.w	r3, r3, #4
 4aa:	6013      	str	r3, [r2, #0]

  // Enable systick interrupt
  NVIC_ST_CTRL_R |= NVIC_ST_CTRL_INTEN;
 4ac:	4b08      	ldr	r3, [pc, #32]	; (4d0 <init_systick+0x50>)
 4ae:	681b      	ldr	r3, [r3, #0]
 4b0:	4a07      	ldr	r2, [pc, #28]	; (4d0 <init_systick+0x50>)
 4b2:	f043 0302 	orr.w	r3, r3, #2
 4b6:	6013      	str	r3, [r2, #0]

  // Enable and start timer
  NVIC_ST_CTRL_R |= NVIC_ST_CTRL_ENABLE;
 4b8:	4b05      	ldr	r3, [pc, #20]	; (4d0 <init_systick+0x50>)
 4ba:	681b      	ldr	r3, [r3, #0]
 4bc:	4a04      	ldr	r2, [pc, #16]	; (4d0 <init_systick+0x50>)
 4be:	f043 0301 	orr.w	r3, r3, #1
 4c2:	6013      	str	r3, [r2, #0]
}
 4c4:	bf00      	nop
 4c6:	46bd      	mov	sp, r7
 4c8:	f85d 7b04 	ldr.w	r7, [sp], #4
 4cc:	4770      	bx	lr
 4ce:	bf00      	nop
 4d0:	e000e010 	.word	0xe000e010
 4d4:	e000e018 	.word	0xe000e018
 4d8:	e000e014 	.word	0xe000e014

000004dc <lcrh_databits>:
*   		    6: bit5 = 1, bit6 = 0.
*   		    7: bit5 = 0, bit6 = 1.
*   		    8: bit5 = 1, bit6 = 1  (default).
*   		   all other bits are returned = 0
******************************************************************************/
{
 4dc:	b480      	push	{r7}
 4de:	b083      	sub	sp, #12
 4e0:	af00      	add	r7, sp, #0
 4e2:	4603      	mov	r3, r0
 4e4:	71fb      	strb	r3, [r7, #7]
  if(( antal_databits < 5 ) || ( antal_databits > 8 ))
 4e6:	79fb      	ldrb	r3, [r7, #7]
 4e8:	2b04      	cmp	r3, #4
 4ea:	d902      	bls.n	4f2 <lcrh_databits+0x16>
 4ec:	79fb      	ldrb	r3, [r7, #7]
 4ee:	2b08      	cmp	r3, #8
 4f0:	d901      	bls.n	4f6 <lcrh_databits+0x1a>
	antal_databits = 8;
 4f2:	2308      	movs	r3, #8
 4f4:	71fb      	strb	r3, [r7, #7]
  return(( (INT32U)antal_databits - 5 ) << 5 );  // Control bit 5-6, WLEN
 4f6:	79fb      	ldrb	r3, [r7, #7]
 4f8:	3b05      	subs	r3, #5
 4fa:	015b      	lsls	r3, r3, #5
}
 4fc:	4618      	mov	r0, r3
 4fe:	370c      	adds	r7, #12
 500:	46bd      	mov	sp, r7
 502:	f85d 7b04 	ldr.w	r7, [sp], #4
 506:	4770      	bx	lr

00000508 <lcrh_stopbits>:
*   Function : sets bit 3 according to the wanted number of stop bits.
*   		    1 stpobit:  bit3 = 0 (default).
*   		    2 stopbits: bit3 = 1.
*   		   all other bits are returned = 0
******************************************************************************/
{
 508:	b480      	push	{r7}
 50a:	b083      	sub	sp, #12
 50c:	af00      	add	r7, sp, #0
 50e:	4603      	mov	r3, r0
 510:	71fb      	strb	r3, [r7, #7]
  if( antal_stopbits == 2 )
 512:	79fb      	ldrb	r3, [r7, #7]
 514:	2b02      	cmp	r3, #2
 516:	d101      	bne.n	51c <lcrh_stopbits+0x14>
    return( 0x00000008 );  		// return bit 3 = 1
 518:	2308      	movs	r3, #8
 51a:	e000      	b.n	51e <lcrh_stopbits+0x16>
  else
	return( 0x00000000 );		// return all zeros
 51c:	2300      	movs	r3, #0
}
 51e:	4618      	mov	r0, r3
 520:	370c      	adds	r7, #12
 522:	46bd      	mov	sp, r7
 524:	f85d 7b04 	ldr.w	r7, [sp], #4
 528:	4770      	bx	lr

0000052a <lcrh_parity>:
*   		    '0':  10000110b.
*   		    '1':  10000010b.
*   		    'n':  00000000b.
*   		   all other bits are returned = 0
******************************************************************************/
{
 52a:	b480      	push	{r7}
 52c:	b085      	sub	sp, #20
 52e:	af00      	add	r7, sp, #0
 530:	4603      	mov	r3, r0
 532:	71fb      	strb	r3, [r7, #7]
  INT32U result;

  switch( parity )
 534:	79fb      	ldrb	r3, [r7, #7]
 536:	2b6f      	cmp	r3, #111	; 0x6f
 538:	d00d      	beq.n	556 <lcrh_parity+0x2c>
 53a:	2b6f      	cmp	r3, #111	; 0x6f
 53c:	dc14      	bgt.n	568 <lcrh_parity+0x3e>
 53e:	2b65      	cmp	r3, #101	; 0x65
 540:	d006      	beq.n	550 <lcrh_parity+0x26>
 542:	2b65      	cmp	r3, #101	; 0x65
 544:	dc10      	bgt.n	568 <lcrh_parity+0x3e>
 546:	2b30      	cmp	r3, #48	; 0x30
 548:	d008      	beq.n	55c <lcrh_parity+0x32>
 54a:	2b31      	cmp	r3, #49	; 0x31
 54c:	d009      	beq.n	562 <lcrh_parity+0x38>
 54e:	e00b      	b.n	568 <lcrh_parity+0x3e>
  {
    case 'e':
      result = 0x00000006;
 550:	2306      	movs	r3, #6
 552:	60fb      	str	r3, [r7, #12]
      break;
 554:	e00a      	b.n	56c <lcrh_parity+0x42>
    case 'o':
      result = 0x00000002;
 556:	2302      	movs	r3, #2
 558:	60fb      	str	r3, [r7, #12]
      break;
 55a:	e007      	b.n	56c <lcrh_parity+0x42>
    case '0':
      result = 0x00000086;
 55c:	2386      	movs	r3, #134	; 0x86
 55e:	60fb      	str	r3, [r7, #12]
      break;
 560:	e004      	b.n	56c <lcrh_parity+0x42>
    case '1':
      result = 0x00000082;
 562:	2382      	movs	r3, #130	; 0x82
 564:	60fb      	str	r3, [r7, #12]
      break;
 566:	e001      	b.n	56c <lcrh_parity+0x42>
    case 'n':
    default:
      result = 0x00000000;
 568:	2300      	movs	r3, #0
 56a:	60fb      	str	r3, [r7, #12]
  }
  return( result );
 56c:	68fb      	ldr	r3, [r7, #12]
}
 56e:	4618      	mov	r0, r3
 570:	3714      	adds	r7, #20
 572:	46bd      	mov	sp, r7
 574:	f85d 7b04 	ldr.w	r7, [sp], #4
 578:	4770      	bx	lr
	...

0000057c <uart0_fifos_disable>:
/*****************************************************************************
*   Input    :
*   Output   :
*   Function : Enable the tx and rx fifos
******************************************************************************/
{
 57c:	b480      	push	{r7}
 57e:	af00      	add	r7, sp, #0
  UART0_LCRH_R  &= 0xFFFFFFEF;
 580:	4b05      	ldr	r3, [pc, #20]	; (598 <uart0_fifos_disable+0x1c>)
 582:	681b      	ldr	r3, [r3, #0]
 584:	4a04      	ldr	r2, [pc, #16]	; (598 <uart0_fifos_disable+0x1c>)
 586:	f023 0310 	bic.w	r3, r3, #16
 58a:	6013      	str	r3, [r2, #0]
}
 58c:	bf00      	nop
 58e:	46bd      	mov	sp, r7
 590:	f85d 7b04 	ldr.w	r7, [sp], #4
 594:	4770      	bx	lr
 596:	bf00      	nop
 598:	4000c02c 	.word	0x4000c02c

0000059c <uart0_tx_rdy>:

extern BOOLEAN uart0_tx_rdy()
/*****************************************************************************
*   Function : See module specification (.h-file).
*****************************************************************************/
{
 59c:	b480      	push	{r7}
 59e:	af00      	add	r7, sp, #0
  return( UART0_FR_R & UART_FR_TXFE );
 5a0:	4b05      	ldr	r3, [pc, #20]	; (5b8 <uart0_tx_rdy+0x1c>)
 5a2:	681b      	ldr	r3, [r3, #0]
 5a4:	b2db      	uxtb	r3, r3
 5a6:	f023 037f 	bic.w	r3, r3, #127	; 0x7f
 5aa:	b2db      	uxtb	r3, r3
}
 5ac:	4618      	mov	r0, r3
 5ae:	46bd      	mov	sp, r7
 5b0:	f85d 7b04 	ldr.w	r7, [sp], #4
 5b4:	4770      	bx	lr
 5b6:	bf00      	nop
 5b8:	4000c018 	.word	0x4000c018

000005bc <uart0_putc>:

extern void uart0_putc( INT8U ch )
/*****************************************************************************
*   Function : See module specification (.h-file).
*****************************************************************************/
{
 5bc:	b480      	push	{r7}
 5be:	b083      	sub	sp, #12
 5c0:	af00      	add	r7, sp, #0
 5c2:	4603      	mov	r3, r0
 5c4:	71fb      	strb	r3, [r7, #7]
  UART0_DR_R = ch;
 5c6:	4a04      	ldr	r2, [pc, #16]	; (5d8 <uart0_putc+0x1c>)
 5c8:	79fb      	ldrb	r3, [r7, #7]
 5ca:	6013      	str	r3, [r2, #0]
}
 5cc:	bf00      	nop
 5ce:	370c      	adds	r7, #12
 5d0:	46bd      	mov	sp, r7
 5d2:	f85d 7b04 	ldr.w	r7, [sp], #4
 5d6:	4770      	bx	lr
 5d8:	4000c000 	.word	0x4000c000

000005dc <uart0_init>:

extern void uart0_init( INT32U baud_rate, INT8U databits, INT8U stopbits, INT8U parity )
/*****************************************************************************
*   Function : See module specification (.h-file).
*****************************************************************************/
{
 5dc:	b590      	push	{r4, r7, lr}
 5de:	b085      	sub	sp, #20
 5e0:	af00      	add	r7, sp, #0
 5e2:	6078      	str	r0, [r7, #4]
 5e4:	4608      	mov	r0, r1
 5e6:	4611      	mov	r1, r2
 5e8:	461a      	mov	r2, r3
 5ea:	4603      	mov	r3, r0
 5ec:	70fb      	strb	r3, [r7, #3]
 5ee:	460b      	mov	r3, r1
 5f0:	70bb      	strb	r3, [r7, #2]
 5f2:	4613      	mov	r3, r2
 5f4:	707b      	strb	r3, [r7, #1]
  INT32U BRD;

  #ifndef E_PORTA
  #define E_PORTA
  SYSCTL_RCGC2_R |= SYSCTL_RCGC2_GPIOA;					// Enable clock for Port A
 5f6:	4b2d      	ldr	r3, [pc, #180]	; (6ac <uart0_init+0xd0>)
 5f8:	681b      	ldr	r3, [r3, #0]
 5fa:	4a2c      	ldr	r2, [pc, #176]	; (6ac <uart0_init+0xd0>)
 5fc:	f043 0301 	orr.w	r3, r3, #1
 600:	6013      	str	r3, [r2, #0]
  #endif

  #ifndef E_UART0
  #define E_UART0
  SYSCTL_RCGC1_R |= SYSCTL_RCGC1_UART0;					// Enable clock for UART 0
 602:	4b2b      	ldr	r3, [pc, #172]	; (6b0 <uart0_init+0xd4>)
 604:	681b      	ldr	r3, [r3, #0]
 606:	4a2a      	ldr	r2, [pc, #168]	; (6b0 <uart0_init+0xd4>)
 608:	f043 0301 	orr.w	r3, r3, #1
 60c:	6013      	str	r3, [r2, #0]
  #endif

  GPIO_PORTA_AFSEL_R |= 0x00000003;		// set PA0 og PA1 to alternativ function (uart0)
 60e:	4b29      	ldr	r3, [pc, #164]	; (6b4 <uart0_init+0xd8>)
 610:	681b      	ldr	r3, [r3, #0]
 612:	4a28      	ldr	r2, [pc, #160]	; (6b4 <uart0_init+0xd8>)
 614:	f043 0303 	orr.w	r3, r3, #3
 618:	6013      	str	r3, [r2, #0]
  GPIO_PORTA_DIR_R   |= 0x00000002;     // set PA1 (uart0 tx) to output
 61a:	4b27      	ldr	r3, [pc, #156]	; (6b8 <uart0_init+0xdc>)
 61c:	681b      	ldr	r3, [r3, #0]
 61e:	4a26      	ldr	r2, [pc, #152]	; (6b8 <uart0_init+0xdc>)
 620:	f043 0302 	orr.w	r3, r3, #2
 624:	6013      	str	r3, [r2, #0]
  GPIO_PORTA_DIR_R   &= 0xFFFFFFFE;     // set PA0 (uart0 rx) to input
 626:	4b24      	ldr	r3, [pc, #144]	; (6b8 <uart0_init+0xdc>)
 628:	681b      	ldr	r3, [r3, #0]
 62a:	4a23      	ldr	r2, [pc, #140]	; (6b8 <uart0_init+0xdc>)
 62c:	f023 0301 	bic.w	r3, r3, #1
 630:	6013      	str	r3, [r2, #0]
  GPIO_PORTA_DEN_R   |= 0x00000003;		// enable digital operation of PA0 and PA1
 632:	4b22      	ldr	r3, [pc, #136]	; (6bc <uart0_init+0xe0>)
 634:	681b      	ldr	r3, [r3, #0]
 636:	4a21      	ldr	r2, [pc, #132]	; (6bc <uart0_init+0xe0>)
 638:	f043 0303 	orr.w	r3, r3, #3
 63c:	6013      	str	r3, [r2, #0]
  //GPIO_PORTA_PUR_R   |= 0x00000002;

  BRD = 64000000 / baud_rate;   	// X-sys*64/(16*baudrate) = 16M*4/baudrate
 63e:	4a20      	ldr	r2, [pc, #128]	; (6c0 <uart0_init+0xe4>)
 640:	687b      	ldr	r3, [r7, #4]
 642:	fbb2 f3f3 	udiv	r3, r2, r3
 646:	60fb      	str	r3, [r7, #12]
  UART0_IBRD_R = BRD / 64;
 648:	4a1e      	ldr	r2, [pc, #120]	; (6c4 <uart0_init+0xe8>)
 64a:	68fb      	ldr	r3, [r7, #12]
 64c:	099b      	lsrs	r3, r3, #6
 64e:	6013      	str	r3, [r2, #0]
  UART0_FBRD_R = BRD & 0x0000003F;
 650:	4a1d      	ldr	r2, [pc, #116]	; (6c8 <uart0_init+0xec>)
 652:	68fb      	ldr	r3, [r7, #12]
 654:	f003 033f 	and.w	r3, r3, #63	; 0x3f
 658:	6013      	str	r3, [r2, #0]

  UART0_LCRH_R  = lcrh_databits( databits );
 65a:	4c1c      	ldr	r4, [pc, #112]	; (6cc <uart0_init+0xf0>)
 65c:	78fb      	ldrb	r3, [r7, #3]
 65e:	4618      	mov	r0, r3
 660:	f7ff ff3c 	bl	4dc <lcrh_databits>
 664:	4603      	mov	r3, r0
 666:	6023      	str	r3, [r4, #0]
  UART0_LCRH_R += lcrh_stopbits( stopbits );
 668:	78bb      	ldrb	r3, [r7, #2]
 66a:	4618      	mov	r0, r3
 66c:	f7ff ff4c 	bl	508 <lcrh_stopbits>
 670:	4602      	mov	r2, r0
 672:	4b16      	ldr	r3, [pc, #88]	; (6cc <uart0_init+0xf0>)
 674:	681b      	ldr	r3, [r3, #0]
 676:	4915      	ldr	r1, [pc, #84]	; (6cc <uart0_init+0xf0>)
 678:	4413      	add	r3, r2
 67a:	600b      	str	r3, [r1, #0]
  UART0_LCRH_R += lcrh_parity( parity );
 67c:	787b      	ldrb	r3, [r7, #1]
 67e:	4618      	mov	r0, r3
 680:	f7ff ff53 	bl	52a <lcrh_parity>
 684:	4602      	mov	r2, r0
 686:	4b11      	ldr	r3, [pc, #68]	; (6cc <uart0_init+0xf0>)
 688:	681b      	ldr	r3, [r3, #0]
 68a:	4910      	ldr	r1, [pc, #64]	; (6cc <uart0_init+0xf0>)
 68c:	4413      	add	r3, r2
 68e:	600b      	str	r3, [r1, #0]

  uart0_fifos_disable();
 690:	f7ff ff74 	bl	57c <uart0_fifos_disable>

  UART0_CTL_R  |= (UART_CTL_UARTEN | UART_CTL_TXE );  // Enable UART
 694:	4b0e      	ldr	r3, [pc, #56]	; (6d0 <uart0_init+0xf4>)
 696:	681b      	ldr	r3, [r3, #0]
 698:	4a0d      	ldr	r2, [pc, #52]	; (6d0 <uart0_init+0xf4>)
 69a:	f443 7380 	orr.w	r3, r3, #256	; 0x100
 69e:	f043 0301 	orr.w	r3, r3, #1
 6a2:	6013      	str	r3, [r2, #0]
}
 6a4:	bf00      	nop
 6a6:	3714      	adds	r7, #20
 6a8:	46bd      	mov	sp, r7
 6aa:	bd90      	pop	{r4, r7, pc}
 6ac:	400fe108 	.word	0x400fe108
 6b0:	400fe104 	.word	0x400fe104
 6b4:	40004420 	.word	0x40004420
 6b8:	40004400 	.word	0x40004400
 6bc:	4000451c 	.word	0x4000451c
 6c0:	03d09000 	.word	0x03d09000
 6c4:	4000c024 	.word	0x4000c024
 6c8:	4000c028 	.word	0x4000c028
 6cc:	4000c02c 	.word	0x4000c02c
 6d0:	4000c030 	.word	0x4000c030

000006d4 <uart_putc>:
#include "uart0.h"

void uart_putc(char ch) {
 6d4:	b580      	push	{r7, lr}
 6d6:	b082      	sub	sp, #8
 6d8:	af00      	add	r7, sp, #0
 6da:	4603      	mov	r3, r0
 6dc:	71fb      	strb	r3, [r7, #7]
    while(!uart0_tx_rdy());
 6de:	bf00      	nop
 6e0:	f7ff ff5c 	bl	59c <uart0_tx_rdy>
 6e4:	4603      	mov	r3, r0
 6e6:	2b00      	cmp	r3, #0
 6e8:	d0fa      	beq.n	6e0 <uart_putc+0xc>
    uart0_putc(ch);
 6ea:	79fb      	ldrb	r3, [r7, #7]
 6ec:	4618      	mov	r0, r3
 6ee:	f7ff ff65 	bl	5bc <uart0_putc>
}
 6f2:	bf00      	nop
 6f4:	3708      	adds	r7, #8
 6f6:	46bd      	mov	sp, r7
 6f8:	bd80      	pop	{r7, pc}

000006fa <uart_init>:
    *buffer_pointer = '\0';

    return buffer;
}

void uart_init() {
 6fa:	b580      	push	{r7, lr}
 6fc:	af00      	add	r7, sp, #0
    uart0_init(9600, 8, 0, 0);
 6fe:	2300      	movs	r3, #0
 700:	2200      	movs	r2, #0
 702:	2108      	movs	r1, #8
 704:	f44f 5016 	mov.w	r0, #9600	; 0x2580
 708:	f7ff ff68 	bl	5dc <uart0_init>
}
 70c:	bf00      	nop
 70e:	bd80      	pop	{r7, pc}

00000710 <uart_put_string>:

void uart_put_string(char* str) {
 710:	b580      	push	{r7, lr}
 712:	b082      	sub	sp, #8
 714:	af00      	add	r7, sp, #0
 716:	6078      	str	r0, [r7, #4]
    while(*str) uart_putc(*str++);
 718:	e006      	b.n	728 <uart_put_string+0x18>
 71a:	687b      	ldr	r3, [r7, #4]
 71c:	1c5a      	adds	r2, r3, #1
 71e:	607a      	str	r2, [r7, #4]
 720:	781b      	ldrb	r3, [r3, #0]
 722:	4618      	mov	r0, r3
 724:	f7ff ffd6 	bl	6d4 <uart_putc>
 728:	687b      	ldr	r3, [r7, #4]
 72a:	781b      	ldrb	r3, [r3, #0]
 72c:	2b00      	cmp	r3, #0
 72e:	d1f4      	bne.n	71a <uart_put_string+0xa>
}
 730:	bf00      	nop
 732:	bf00      	nop
 734:	3708      	adds	r7, #8
 736:	46bd      	mov	sp, r7
 738:	bd80      	pop	{r7, pc}

0000073a <uart_put_stringln>:

void uart_put_stringln(char* str) {
 73a:	b580      	push	{r7, lr}
 73c:	b082      	sub	sp, #8
 73e:	af00      	add	r7, sp, #0
 740:	6078      	str	r0, [r7, #4]
    uart_put_string(str);
 742:	6878      	ldr	r0, [r7, #4]
 744:	f7ff ffe4 	bl	710 <uart_put_string>
    uart_putc('\n');
 748:	200a      	movs	r0, #10
 74a:	f7ff ffc3 	bl	6d4 <uart_putc>
}
 74e:	bf00      	nop
 750:	3708      	adds	r7, #8
 752:	46bd      	mov	sp, r7
 754:	bd80      	pop	{r7, pc}
 756:	0000      	movs	r0, r0
 758:	6e727554 	.word	0x6e727554
 75c:	20676e69 	.word	0x20676e69
 760:	00214e4f 	.word	0x00214e4f
 764:	6e727554 	.word	0x6e727554
 768:	20676e69 	.word	0x20676e69
 76c:	2e46464f 	.word	0x2e46464f
 770:	2e2e      	.short	0x2e2e
	...
